
./bomb：     文件格式 elf64-x86-64

Contents of section .interp:
 4002a8 2f6c6962 36342f6c 642d6c69 6e75782d  /lib64/ld-linux-
 4002b8 7838362d 36342e73 6f2e3200           x86-64.so.2.    
Contents of section .note.gnu.build-id:
 4002c4 04000000 14000000 03000000 474e5500  ............GNU.
 4002d4 e21105d1 f56d6fe2 eca7bc41 fd89b81b  .....mo....A....
 4002e4 a31924d4                             ..$.            
Contents of section .note.ABI-tag:
 4002e8 04000000 10000000 01000000 474e5500  ............GNU.
 4002f8 00000000 03000000 02000000 00000000  ................
Contents of section .gnu.hash:
 400308 02000000 23000000 01000000 06000000  ....#...........
 400318 00002000 80011000 23000000 24000000  .. .....#...$...
 400328 291d8c1c 67556110                    )...gUa.        
Contents of section .dynsym:
 400330 00000000 00000000 00000000 00000000  ................
 400340 00000000 00000000 bb000000 12000000  ................
 400350 00000000 00000000 00000000 00000000  ................
 400360 81000000 12000000 00000000 00000000  ................
 400370 00000000 00000000 17000000 12000000  ................
 400380 00000000 00000000 00000000 00000000  ................
 400390 50000000 12000000 00000000 00000000  P...............
 4003a0 00000000 00000000 dc000000 12000000  ................
 4003b0 00000000 00000000 00000000 00000000  ................
 4003c0 9f000000 12000000 00000000 00000000  ................
 4003d0 00000000 00000000 c2000000 12000000  ................
 4003e0 00000000 00000000 00000000 00000000  ................
 4003f0 e3000000 12000000 00000000 00000000  ................
 400400 00000000 00000000 65000000 12000000  ........e.......
 400410 00000000 00000000 00000000 00000000  ................
 400420 d7000000 12000000 00000000 00000000  ................
 400430 00000000 00000000 a0000000 12000000  ................
 400440 00000000 00000000 00000000 00000000  ................
 400450 99000000 12000000 00000000 00000000  ................
 400460 00000000 00000000 f8000000 12000000  ................
 400470 00000000 00000000 00000000 00000000  ................
 400480 73000000 12000000 00000000 00000000  s...............
 400490 00000000 00000000 79000000 12000000  ........y.......
 4004a0 00000000 00000000 00000000 00000000  ................
 4004b0 49000000 12000000 00000000 00000000  I...............
 4004c0 00000000 00000000 c9000000 12000000  ................
 4004d0 00000000 00000000 00000000 00000000  ................
 4004e0 e2000000 12000000 00000000 00000000  ................
 4004f0 00000000 00000000 34010000 20000000  ........4... ...
 400500 00000000 00000000 00000000 00000000  ................
 400510 6c000000 12000000 00000000 00000000  l...............
 400520 00000000 00000000 5b000000 12000000  ........[.......
 400530 00000000 00000000 00000000 00000000  ................
 400540 10000000 12000000 00000000 00000000  ................
 400550 00000000 00000000 31000000 12000000  ........1.......
 400560 00000000 00000000 00000000 00000000  ................
 400570 f0000000 12000000 00000000 00000000  ................
 400580 00000000 00000000 08000000 12000000  ................
 400590 00000000 00000000 00000000 00000000  ................
 4005a0 2b000000 12000000 00000000 00000000  +...............
 4005b0 00000000 00000000 a6000000 12000000  ................
 4005c0 00000000 00000000 00000000 00000000  ................
 4005d0 23000000 12000000 00000000 00000000  #...............
 4005e0 00000000 00000000 1e000000 12000000  ................
 4005f0 00000000 00000000 00000000 00000000  ................
 400600 41000000 12000000 00000000 00000000  A...............
 400610 00000000 00000000 db000000 12000000  ................
 400620 00000000 00000000 00000000 00000000  ................
 400630 ea000000 12000000 00000000 00000000  ................
 400640 00000000 00000000 ad000000 12000000  ................
 400650 00000000 00000000 00000000 00000000  ................
 400660 01000000 12000000 00000000 00000000  ................
 400670 00000000 00000000 92000000 11001800  ................
 400680 a0574000 00000000 08000000 00000000  .W@.............
 400690 55000000 11001800 b0574000 00000000  U........W@.....
 4006a0 08000000 00000000                    ........        
Contents of section .dynstr:
 4006a8 00736f63 6b657400 63757365 72696400  .socket.cuserid.
 4006b8 66666c75 73680073 74726370 79006578  fflush.strcpy.ex
 4006c8 69740073 7072696e 74660066 6f70656e  it.sprintf.fopen
 4006d8 005f5f69 736f6339 395f7373 63616e66  .__isoc99_sscanf
 4006e8 00636f6e 6e656374 00736967 6e616c00  .connect.signal.
 4006f8 70757473 00737464 696e0069 6e65745f  puts.stdin.inet_
 400708 70746f6e 00726577 696e6400 73747274  pton.rewind.strt
 400718 6f6c0066 67657473 00746d70 66696c65  ol.fgets.tmpfile
 400728 005f5f65 72726e6f 5f6c6f63 6174696f  .__errno_locatio
 400738 6e007374 646f7574 00667075 74630066  n.stdout.fputc.f
 400748 636c6f73 65007374 72636174 005f5f63  close.strcat.__c
 400758 74797065 5f625f6c 6f630067 6574656e  type_b_loc.geten
 400768 76007379 7374656d 00676574 686f7374  v.system.gethost
 400778 62796e61 6d650064 75700066 77726974  byname.dup.fwrit
 400788 65006670 72696e74 6600736c 65657000  e.fprintf.sleep.
 400798 6d656d6d 6f766500 5f5f6c69 62635f73  memmove.__libc_s
 4007a8 74617274 5f6d6169 6e006c69 62632e73  tart_main.libc.s
 4007b8 6f2e3600 474c4942 435f322e 3300474c  o.6.GLIBC_2.3.GL
 4007c8 4942435f 322e3700 474c4942 435f322e  IBC_2.7.GLIBC_2.
 4007d8 322e3500 5f5f676d 6f6e5f73 74617274  2.5.__gmon_start
 4007e8 5f5f00                               __.             
Contents of section .gnu.version:
 4007ec 00000200 02000200 02000200 02000200  ................
 4007fc 02000200 02000200 02000200 02000200  ................
 40080c 02000200 02000000 02000200 02000300  ................
 40081c 02000200 02000200 02000200 02000200  ................
 40082c 02000400 02000200 0200               ..........      
Contents of section .gnu.version_r:
 400838 01000300 0a010000 10000000 00000000  ................
 400848 1369690d 00000400 14010000 10000000  .ii.............
 400858 1769690d 00000300 1e010000 10000000  .ii.............
 400868 751a6909 00000200 28010000 00000000  u.i.....(.......
Contents of section .rela.dyn:
 400878 f04f4000 00000000 06000000 0d000000  .O@.............
 400888 00000000 00000000 f84f4000 00000000  .........O@.....
 400898 06000000 13000000 00000000 00000000  ................
 4008a8 a0574000 00000000 05000000 23000000  .W@.........#...
 4008b8 00000000 00000000 b0574000 00000000  .........W@.....
 4008c8 05000000 24000000 00000000 00000000  ....$...........
Contents of section .rela.plt:
 4008d8 18504000 00000000 07000000 01000000  .P@.............
 4008e8 00000000 00000000 20504000 00000000  ........ P@.....
 4008f8 07000000 02000000 00000000 00000000  ................
 400908 28504000 00000000 07000000 03000000  (P@.............
 400918 00000000 00000000 30504000 00000000  ........0P@.....
 400928 07000000 04000000 00000000 00000000  ................
 400938 38504000 00000000 07000000 05000000  8P@.............
 400948 00000000 00000000 40504000 00000000  ........@P@.....
 400958 07000000 06000000 00000000 00000000  ................
 400968 48504000 00000000 07000000 07000000  HP@.............
 400978 00000000 00000000 50504000 00000000  ........PP@.....
 400988 07000000 08000000 00000000 00000000  ................
 400998 58504000 00000000 07000000 09000000  XP@.............
 4009a8 00000000 00000000 60504000 00000000  ........`P@.....
 4009b8 07000000 0a000000 00000000 00000000  ................
 4009c8 68504000 00000000 07000000 0b000000  hP@.............
 4009d8 00000000 00000000 70504000 00000000  ........pP@.....
 4009e8 07000000 0c000000 00000000 00000000  ................
 4009f8 78504000 00000000 07000000 0e000000  xP@.............
 400a08 00000000 00000000 80504000 00000000  .........P@.....
 400a18 07000000 0f000000 00000000 00000000  ................
 400a28 88504000 00000000 07000000 10000000  .P@.............
 400a38 00000000 00000000 90504000 00000000  .........P@.....
 400a48 07000000 11000000 00000000 00000000  ................
 400a58 98504000 00000000 07000000 12000000  .P@.............
 400a68 00000000 00000000 a0504000 00000000  .........P@.....
 400a78 07000000 14000000 00000000 00000000  ................
 400a88 a8504000 00000000 07000000 15000000  .P@.............
 400a98 00000000 00000000 b0504000 00000000  .........P@.....
 400aa8 07000000 16000000 00000000 00000000  ................
 400ab8 b8504000 00000000 07000000 17000000  .P@.............
 400ac8 00000000 00000000 c0504000 00000000  .........P@.....
 400ad8 07000000 18000000 00000000 00000000  ................
 400ae8 c8504000 00000000 07000000 19000000  .P@.............
 400af8 00000000 00000000 d0504000 00000000  .........P@.....
 400b08 07000000 1a000000 00000000 00000000  ................
 400b18 d8504000 00000000 07000000 1b000000  .P@.............
 400b28 00000000 00000000 e0504000 00000000  .........P@.....
 400b38 07000000 1c000000 00000000 00000000  ................
 400b48 e8504000 00000000 07000000 1d000000  .P@.............
 400b58 00000000 00000000 f0504000 00000000  .........P@.....
 400b68 07000000 1e000000 00000000 00000000  ................
 400b78 f8504000 00000000 07000000 1f000000  .P@.............
 400b88 00000000 00000000 00514000 00000000  .........Q@.....
 400b98 07000000 20000000 00000000 00000000  .... ...........
 400ba8 08514000 00000000 07000000 21000000  .Q@.........!...
 400bb8 00000000 00000000 10514000 00000000  .........Q@.....
 400bc8 07000000 22000000 00000000 00000000  ...."...........
Contents of section .init:
 401000 4883ec08 488b05ed 3f000048 85c07402  H...H...?..H..t.
 401010 ffd04883 c408c3                      ..H....         
Contents of section .plt:
 401020 ff35e23f 0000ff25 e43f0000 0f1f4000  .5.?...%.?....@.
 401030 ff25e23f 00006800 000000e9 e0ffffff  .%.?..h.........
 401040 ff25da3f 00006801 000000e9 d0ffffff  .%.?..h.........
 401050 ff25d23f 00006802 000000e9 c0ffffff  .%.?..h.........
 401060 ff25ca3f 00006803 000000e9 b0ffffff  .%.?..h.........
 401070 ff25c23f 00006804 000000e9 a0ffffff  .%.?..h.........
 401080 ff25ba3f 00006805 000000e9 90ffffff  .%.?..h.........
 401090 ff25b23f 00006806 000000e9 80ffffff  .%.?..h.........
 4010a0 ff25aa3f 00006807 000000e9 70ffffff  .%.?..h.....p...
 4010b0 ff25a23f 00006808 000000e9 60ffffff  .%.?..h.....`...
 4010c0 ff259a3f 00006809 000000e9 50ffffff  .%.?..h.....P...
 4010d0 ff25923f 0000680a 000000e9 40ffffff  .%.?..h.....@...
 4010e0 ff258a3f 0000680b 000000e9 30ffffff  .%.?..h.....0...
 4010f0 ff25823f 0000680c 000000e9 20ffffff  .%.?..h..... ...
 401100 ff257a3f 0000680d 000000e9 10ffffff  .%z?..h.........
 401110 ff25723f 0000680e 000000e9 00ffffff  .%r?..h.........
 401120 ff256a3f 0000680f 000000e9 f0feffff  .%j?..h.........
 401130 ff25623f 00006810 000000e9 e0feffff  .%b?..h.........
 401140 ff255a3f 00006811 000000e9 d0feffff  .%Z?..h.........
 401150 ff25523f 00006812 000000e9 c0feffff  .%R?..h.........
 401160 ff254a3f 00006813 000000e9 b0feffff  .%J?..h.........
 401170 ff25423f 00006814 000000e9 a0feffff  .%B?..h.........
 401180 ff253a3f 00006815 000000e9 90feffff  .%:?..h.........
 401190 ff25323f 00006816 000000e9 80feffff  .%2?..h.........
 4011a0 ff252a3f 00006817 000000e9 70feffff  .%*?..h.....p...
 4011b0 ff25223f 00006818 000000e9 60feffff  .%"?..h.....`...
 4011c0 ff251a3f 00006819 000000e9 50feffff  .%.?..h.....P...
 4011d0 ff25123f 0000681a 000000e9 40feffff  .%.?..h.....@...
 4011e0 ff250a3f 0000681b 000000e9 30feffff  .%.?..h.....0...
 4011f0 ff25023f 0000681c 000000e9 20feffff  .%.?..h..... ...
 401200 ff25fa3e 0000681d 000000e9 10feffff  .%.>..h.........
 401210 ff25f23e 0000681e 000000e9 00feffff  .%.>..h.........
 401220 ff25ea3e 0000681f 000000e9 f0fdffff  .%.>..h.........
Contents of section .text:
 401230 31ed4989 d15e4889 e24883e4 f0505449  1.I..^H..H...PTI
 401240 c7c0d023 400048c7 c1702340 0048c7c7  ...#@.H..p#@.H..
 401250 12134000 ff15963d 0000f40f 1f440000  ..@....=.....D..
 401260 c3662e0f 1f840000 0000000f 1f440000  .f...........D..
 401270 b8a05740 00483da0 57400074 13b80000  ..W@.H=.W@.t....
 401280 00004885 c07409bf a0574000 ffe06690  ..H..t...W@...f.
 401290 c366662e 0f1f8400 00000000 0f1f4000  .ff...........@.
 4012a0 bea05740 004881ee a0574000 48c1fe03  ..W@.H...W@.H...
 4012b0 4889f048 c1e83f48 01c648d1 fe7411b8  H..H..?H..H..t..
 4012c0 00000000 4885c074 07bfa057 4000ffe0  ....H..t...W@...
 4012d0 c366662e 0f1f8400 00000000 0f1f4000  .ff...........@.
 4012e0 803dd144 00000075 17554889 e5e87eff  .=.D...u.UH...~.
 4012f0 ffffc605 bf440000 015dc30f 1f440000  .....D...]...D..
 401300 c366662e 0f1f8400 00000000 0f1f4000  .ff...........@.
 401310 eb8e5383 ff010f84 f8000000 4889f383  ..S.........H...
 401320 ff020f85 1c010000 488b7e08 488d3520  ........H.~.H.5 
 401330 210000e8 68feffff 48890581 44000048  !...h...H...D..H
 401340 85c00f84 df000000 e83c0700 00488d3d  .........<...H.=
 401350 341d0000 e807fdff ff488d3d 681d0000  4........H.=h...
 401360 e8fbfcff ffe86e0e 00004889 c7e8f000  ......n...H.....
 401370 0000e862 0f000048 8d3d7a1d 0000e8dd  ...b...H.=z.....
 401380 fcffffe8 500e0000 4889c7e8 f2000000  ....P...H.......
 401390 e8440f00 00488d3d 9f1c0000 e8bffcff  .D...H.=........
 4013a0 ffe8320e 00004889 c7e80f01 0000e826  ..2...H........&
 4013b0 0f000048 8d3d9f1c 0000e8a1 fcffffe8  ...H.=..........
 4013c0 140e0000 4889c7e8 7b020000 e8080f00  ....H...{.......
 4013d0 00488d3d 501d0000 e883fcff ffe8f60d  .H.=P...........
 4013e0 00004889 c7e8a202 0000e8ea 0e000048  ..H............H
 4013f0 8d3d721c 0000e865 fcffffe8 d80d0000  .=r....e........
 401400 4889c7e8 fc020000 e8cc0e00 00b80000  H...............
 401410 00005bc3 488b0595 43000048 89059e43  ..[.H...C..H...C
 401420 0000e921 ffffff48 8b530848 8b33488d  ...!...H.S.H.3H.
 401430 3dcf1b00 00e866fc ffffbf08 000000e8  =.....f.........
 401440 8cfdffff 488b3648 8d3dd31b 0000b800  ....H.6H.=......
 401450 000000e8 48fcffff bf080000 00e86efd  ....H.........n.
 401460 ffff4883 ec08488d 35e31c00 00e8da04  ..H...H.5.......
 401470 000085c0 75054883 c408c3e8 db0c0000  ....u.H.........
 401480 ebf45553 4883ec28 4889e548 89eee804  ..USH..(H..H....
 401490 0d000048 89eb4883 c514eb0e e8ba0c00  ...H..H.........
 4014a0 004883c3 044839eb 740c8b03 83c00539  .H...H9.t......9
 4014b0 430474ed ebe64883 c4285b5d c34883ec  C.t...H..([].H..
 4014c0 18488d4c 2407488d 54240c4c 8d442408  .H.L$.H.T$.L.D$.
 4014d0 488d35e7 1c0000b8 00000000 e88ffcff  H.5.............
 4014e0 ff83f802 7e1f837c 240c070f 870c0100  ....~..|$.......
 4014f0 008b4424 0c488d15 e41c0000 48630482  ..D$.H......Hc..
 401500 4801d0ff e0e8510c 0000ebda b8730000  H.....Q......s..
 401510 00817c24 08350200 000f84e8 000000e8  ..|$.5..........
 401520 370c0000 b8730000 00e9d900 0000b862  7....s.........b
 401530 00000081 7c24082a 0100000f 84c60000  ....|$.*........
 401540 00e8150c 0000b862 000000e9 b7000000  .......b........
 401550 b8630000 00817c24 08940000 000f84a4  .c....|$........
 401560 000000e8 f30b0000 b8630000 00e99500  .........c......
 401570 0000b870 00000081 7c2408a8 0300000f  ...p....|$......
 401580 84820000 00e8d10b 0000b870 000000eb  ...........p....
 401590 76b86600 0000817c 24085f02 00007467  v.f....|$._...tg
 4015a0 e8b60b00 00b86600 0000eb5b b8730000  ......f....[.s..
 4015b0 00817c24 08ef0100 00744ce8 9b0b0000  ..|$.....tL.....
 4015c0 b8730000 00eb40b8 61000000 817c2408  .s....@.a....|$.
 4015d0 dd000000 7431e880 0b0000b8 61000000  ....t1......a...
 4015e0 eb25b864 00000081 7c2408ea 01000074  .%.d....|$.....t
 4015f0 16e8650b 0000b864 000000eb 0ae8590b  ..e....d......Y.
 401600 0000b873 00000038 44240775 054883c4  ...s...8D$.u.H..
 401610 18c3e844 0b0000eb f4b80100 000083ff  ...D............
 401620 017e2355 534883ec 0889fb8d 7fffe8e6  .~#USH..........
 401630 ffffff89 c58d7bfe e8dcffff ff01e848  ......{........H
 401640 83c4085b 5dc3c348 83ec1848 8d54240c  ...[]..H...H.T$.
 401650 488d356d 1b0000b8 00000000 e80ffbff  H.5m............
 401660 ff83f801 7507837c 240c007f 05e8e90a  ....u..|$.......
 401670 00008b7c 240ce89e ffffff83 f8597505  ...|$........Yu.
 401680 4883c418 c3e8d10a 0000ebf4 4883ec18  H...........H...
 401690 488d4c24 08488d54 240c488d 35bb1e00  H.L$.H.T$.H.5...
 4016a0 00b80000 0000e8c5 faffff83 f8017e4d  ..............~M
 4016b0 8b44240c 83e00f89 44240c83 f80f7433  .D$.....D$....t3
 4016c0 b9000000 00ba0000 0000488d 352f1b00  ..........H.5/..
 4016d0 0083c201 48988b04 8601c183 f80f75f1  ....H.........u.
 4016e0 c744240c 0f000000 83fa0975 06394c24  .D$........u.9L$
 4016f0 087405e8 630a0000 4883c418 c3e8590a  .t..c...H.....Y.
 401700 0000ebac 41574156 41554154 55534883  ....AWAVAUATUSH.
 401710 ec584c8d 7424304c 89f6e878 0a00004d  .XL.t$0L...x...M
 401720 89f441bf 01000000 4c8d6c24 30e9a400  ..A.....L.l$0...
 401730 0000e824 0a0000e9 ac000000 4889e649  ...$........H..I
 401740 8d7c2418 418b0c24 b8010000 00488d15  .|$.A..$.....H..
 401750 fc3f0000 83f9017e 0b488b52 0883c001  .?.....~.H.R....
 401760 39c875f5 48891649 83c40448 83c6084c  9.u.H..I...H...L
 401770 39e775d0 488b1c24 488b4424 08488943  9.u.H..$H.D$.H.C
 401780 08488b54 24104889 5008488b 44241848  .H.T$.H.P.H.D$.H
 401790 89420848 8b542420 48895008 488b4424  .B.H.T$ H.P.H.D$
 4017a0 28488942 0848c740 08000000 00bd0500  (H.B.H.@........
 4017b0 0000eb4c e8a20900 004883c3 0183fb05  ...L.....H......
 4017c0 7f0c418b 449d0039 450075ed ebe64983  ..A.D..9E.u...I.
 4017d0 c7014983 c6044c89 f5418b06 83e80183  ..I...L..A......
 4017e0 f8050f87 4affffff 4983ff06 0f844aff  ....J...I.....J.
 4017f0 ffff4c89 fbebcb48 8b5b0883 ed017411  ..L....H.[....t.
 401800 488b4308 8b003903 7dede84c 090000eb  H.C...9.}..L....
 401810 e64883c4 585b5d41 5c415d41 5e415fc3  .H..X[]A\A]A^A_.
 401820 4885ff74 324883ec 088b1739 f27f0cb8  H..t2H.....9....
 401830 00000000 75124883 c408c348 8b7f08e8  ....u.H....H....
 401840 dcffffff 01c0ebee 488b7f10 e8cfffff  ........H.......
 401850 ff8d4400 01ebdfb8 ffffffff c353e875  ..D..........S.u
 401860 090000ba 0a000000 be000000 004889c7  .............H..
 401870 e8cbf8ff ff4889c3 8d40ff3d e8030000  .....H...@.=....
 401880 772689de 488d3de5 3d0000e8 90ffffff  w&..H.=.=.......
 401890 83f80375 1a488d3d fc180000 e8bff7ff  ...u.H.=........
 4018a0 ffe8330a 00005bc3 e8ae0800 00ebd3e8  ..3...[.........
 4018b0 a7080000 ebdf4883 ec08488d 3d7f1900  ......H...H.=...
 4018c0 00e89af7 ffffbf03 000000e8 30f9ffff  ............0...
 4018d0 488d3d9a 1a0000b8 00000000 e8bff7ff  H.=.............
 4018e0 ff488b3d b83e0000 e873f8ff ffbf0100  .H.=.>...s......
 4018f0 0000e809 f9ffff48 8d3d7b1a 0000e85d  .......H.={....]
 401900 f7ffffbf 10000000 e8c3f8ff ff4883ec  .............H..
 401910 084889fe 488d3d66 1a0000b8 00000000  .H..H.=f........
 401920 e87bf7ff ffbf0800 0000e8a1 f8ffff80  .{..............
 401930 3f007412 b8000000 004883c7 0183c001  ?.t......H......
 401940 803f0075 f4c3b800 000000c3 41545553  .?.u........ATUS
 401950 4889fb48 89f5e8d4 ffffff41 89c44889  H..H.......A..H.
 401960 efe8c9ff ffffba01 00000041 39c4752f  ...........A9.u/
 401970 0fb60384 c0742f3a 45007531 b8010000  .....t/:E.u1....
 401980 000fb614 0384d274 114883c0 01385405  .......t.H...8T.
 401990 ff74eeba 01000000 eb05ba00 00000089  .t..............
 4019a0 d05b5d41 5cc3ba00 000000eb f2ba0100  .[]A\...........
 4019b0 0000ebeb 41545553 4883ec10 4989fc89  ....ATUSH...I...
 4019c0 f5ba0000 0000be01 000000bf 02000000  ................
 4019d0 e84bf8ff ff85c078 6e89c34c 89e7e83d  .K.....xn..L...=
 4019e0 f7ffff48 85c07475 4989e448 c7442402  ...H..tuI..H.D$.
 4019f0 00000000 41c74424 0a000000 006641c7  ....A.D$.....fA.
 401a00 44240e00 0066c704 24020048 63501448  D$...f..$..HcP.H
 401a10 8b401849 8d7c2404 488b30e8 60f7ffff  .@.I.|$.H.0.`...
 401a20 66c1c508 66896c24 02ba1000 00004c89  f...f.l$......L.
 401a30 e689dfe8 a8f7ffff 85c07837 89d84883  ..........x7..H.
 401a40 c4105b5d 415cc348 8d3d4419 0000e80d  ..[]A\.H.=D.....
 401a50 f6ffffbf 08000000 e873f7ff ff488d3d  .........s...H.=
 401a60 3c190000 e8f7f5ff ffbf0800 0000e85d  <..............]
 401a70 f7ffff48 8d3d3419 0000e8e1 f5ffffbf  ...H.=4.........
 401a80 08000000 e847f7ff ff4883ec 08488d35  .....G...H...H.5
 401a90 22feffff bf020000 00e872f6 ffffbe50  ".........r....P
 401aa0 00000048 8d3d1219 0000e805 ffffff89  ...H.=..........
 401ab0 c7e81af6 ffff4883 c408c355 534883ec  ......H....USH..
 401ac0 084889fd 0fb65d00 84db741e e83ff7ff  .H....]...t..?..
 401ad0 ff4883c5 01480fbe db488b00 f6445801  .H...H...H...DX.
 401ae0 2075e1b8 00000000 eb05b801 00000048   u.............H
 401af0 83c4085b 5dc35553 4883ec08 488d2ddd  ...[].USH...H.-.
 401b00 3c000048 6305b23c 0000488d 3c8048c1  <..Hc..<..H.<.H.
 401b10 e7044801 ef488b15 a43c0000 be500000  ..H..H...<...P..
 401b20 00e8caf5 ffff4889 c34885c0 740c4889  ......H..H..t.H.
 401b30 c7e885ff ffff85c0 75c94889 d84883c4  ........u.H..H..
 401b40 085b5dc3 41564155 41545553 4989d648  .[].AVAUATUSI..H
 401b50 85d2743b 4189fc48 89f54889 d341bd00  ..t;A..H..H..A..
 401b60 000000eb 084801c5 4829c374 224889da  .....H..H).t"H..
 401b70 4889ee44 89e7e8f5 f4ffff48 85c07fe5  H..D.......H....
 401b80 e8bbf4ff ff833804 75114c89 e8ebd64c  ......8.u.L....L
 401b90 89f05b5d 415c415d 415ec348 c7c0ffff  ..[]A\A]A^.H....
 401ba0 ffffebee 41574156 41554154 55534881  ....AWAVAUATUSH.
 401bb0 ec782400 004189fc ba000000 00be0100  .x$..A..........
 401bc0 0000bf02 000000e8 54f6ffff 8944240c  ........T....D$.
 401bd0 85c00f88 28020000 488d9424 64240000  ....(...H..$d$..
 401be0 48c78424 64240000 00000000 c7420800  H..$d$.......B..
 401bf0 00000066 c7842460 24000002 0066c784  ...f..$`$....f..
 401c00 24622400 00c87a48 8d35ae17 0000bf02  $b$...zH.5......
 401c10 000000b8 00000000 e833f5ff ff85c00f  .........3......
 401c20 880d0200 00488db4 24602400 00ba1000  .....H..$`$.....
 401c30 00008b7c 240ce8a5 f5ffff85 c00f882a  ...|$..........*
 401c40 02000048 8d6c2460 48b85375 626a6563  ...H.l$`H.Subjec
 401c50 743a48ba 20426f6d 62206e6f 48894424  t:H. Bomb noH.D$
 401c60 60488954 246848b8 74696669 63617469  `H.T$hH.tificati
 401c70 48894424 70c74424 786f6e0a 00488d9c  H.D$p.D$xon..H..
 401c80 24600400 004889ee 4889dfe8 20f5ffff  $`...H..H... ...
 401c90 66c74424 600a0048 89ee4889 dfe80ef5  f.D$`..H..H.....
 401ca0 ffffbf00 000000e8 e4f4ffff 4885c00f  ............H...
 401cb0 84f30100 00488d7c 24104889 c6e88ef3  .....H.|$.H.....
 401cc0 ffff4585 e44c8d0d fe160000 488d05ff  ..E..L......H...
 401cd0 1600004c 0f44c848 8d5c2460 4883ec08  ...L.D.H.\$`H...
 401ce0 8b05d63a 0000504c 8d442420 8b0d6e39  ...:..PL.D$ ..n9
 401cf0 0000488d 15673500 00488d35 f6160000  ..H..g5..H.5....
 401d00 4889dfb8 00000000 e8b3f4ff ff488dbc  H............H..
 401d10 24700400 004889de e893f4ff ff4883c4  $p...H.......H..
 401d20 10833d94 3a000000 7e6b488d 2daf3a00  ..=.:...~kH.-.:.
 401d30 00bb0000 00004c8d 7c24104c 8d642460  ......L.|$.L.d$`
 401d40 4c8d3519 3500004c 8dac2460 04000083  L.5.5..L..$`....
 401d50 c3014883 ec085541 89d94d89 f88b0dfd  ..H...UA..M.....
 401d60 3800004c 89f2488d 35a51600 004c89e7  8..L..H.5....L..
 401d70 b8000000 00e846f4 ffff4c89 e64c89ef  ......F...L..L..
 401d80 e82bf4ff ff4883c5 504883c4 103b1d29  .+...H..PH...;.)
 401d90 3a00007c ba488dac 24600400 0049c7c4  :..|.H..$`...I..
 401da0 ffffffff bb000000 004c89e1 4889ef89  .........L..H...
 401db0 d8f2ae48 f7d14a8d 14214889 ee8b7c24  ...H..J..!H...|$
 401dc0 0ce87efd ffff4889 c24c89e1 4889ef89  ..~...H..L..H...
 401dd0 d8f2ae48 89cb48f7 d34c01e3 4839da0f  ...H..H..L..H9..
 401de0 82dc0000 008b7c24 0ce8e2f2 ffff4881  ......|$......H.
 401df0 c4782400 005b5d41 5c415d41 5e415fc3  .x$..[]A\A]A^A_.
 401e00 488d15d4 15000048 8d350f12 0000488b  H......H.5....H.
 401e10 3d8b3900 00b80000 0000e811 f3ffff8b  =.9.............
 401e20 7c240ce8 a8f2ffff bf010000 00e89ef3  |$..............
 401e30 ffff488d 15161600 00488d35 dd110000  ..H......H.5....
 401e40 488b3d59 390000b8 00000000 e8dff2ff  H.=Y9...........
 401e50 ff837c24 0c00750a bf010000 00e86ef3  ..|$..u.......n.
 401e60 ffff8b7c 240ce865 f2ffffeb eb488d15  ...|$..e.....H..
 401e70 74150000 488d35a2 11000048 8b3d1e39  t...H.5....H.=.9
 401e80 0000b800 000000e8 a4f2ffff 837c240c  .............|$.
 401e90 00750abf 01000000 e833f3ff ff8b7c24  .u.......3....|$
 401ea0 0ce82af2 ffffebeb c7442410 6e6f626f  ..*......D$.nobo
 401eb0 66c74424 146479c6 44241600 e901feff  f.D$.dy.D$......
 401ec0 ff488d15 66150000 488d354e 11000048  .H..f...H.5N...H
 401ed0 8b3dca38 0000e855 f2ffff83 7c240c00  .=.8...U....|$..
 401ee0 750abf01 000000e8 e4f2ffff 8b7c240c  u............|$.
 401ef0 e8dbf1ff ffebeb41 56415541 54555348  .......AVAUATUSH
 401f00 83ec5089 fbbf0000 0000e8b1 f1ffff83  ..P.............
 401f10 f8ff0f84 91010000 4189c6bf 00000000  ........A.......
 401f20 e8abf1ff ff83f8ff 0f849101 0000e8cd  ................
 401f30 f1ffff49 89c44885 c00f8496 01000048  ...I..H........H
 401f40 89c1ba1b 000000be 01000000 488d3d2a  ............H.=*
 401f50 150000e8 98f2ffff 4c89e6bf 0a000000  ........L.......
 401f60 e87bf1ff ffbf0000 0000e821 f2ffff48  .{.........!...H
 401f70 85c00f84 73010000 4889e748 89c6e8cd  ....s...H..H....
 401f80 f0ffff85 db4c8d0d 3e140000 488d053f  .....L..>...H..?
 401f90 1400004c 0f44c848 83ec088b 051b3800  ...L.D.H......8.
 401fa0 00504c8d 4424108b 0db33600 00488d15  .PL.D$....6..H..
 401fb0 ac320000 488d353b 1400004c 89e7b800  .2..H.5;...L....
 401fc0 000000e8 68f1ffff 4883c410 833de937  ....h...H....=.7
 401fd0 0000007e 4e488d2d 04380000 bb000000  ...~NH.-.8......
 401fe0 004989e5 83c30148 83ec0855 4189d94d  .I.....H...UA..M
 401ff0 89e88b0d 68360000 488d1561 32000048  ....h6..H..a2..H
 402000 8d350c14 00004c89 e7b80000 0000e81d  .5....L.........
 402010 f1ffff48 83c55048 83c4103b 1d9b3700  ...H..PH...;..7.
 402020 007cc14c 89e7e885 f0ffff4c 8d056714  .|.L.......L..g.
 402030 0000488d 0d6a1400 00488d15 6b140000  ..H..j...H..k...
 402040 488d357b 14000048 8d3dd23d 0000b800  H.5{...H.=.=....
 402050 000000e8 68f1ffff 488d3dc1 3d0000e8  ....h...H.=.=...
 402060 2cf0ffff 85c00f85 97000000 4c89e7e8  ,...........L...
 402070 0cf0ffff 85c00f85 9d000000 4489f7e8  ............D...
 402080 3cf0ffff 85c00f85 a3000000 4489f7e8  <...........D...
 402090 3cf0ffff 85c00f85 a9000000 4883c450  <...........H..P
 4020a0 5b5d415c 415d415e c3488d3d 91130000  []A\A]A^.H.=....
 4020b0 e8abefff ffbf0800 0000e811 f1ffff48  ...............H
 4020c0 8d3d8f13 0000e895 efffffbf 08000000  .=..............
 4020d0 e8fbf0ff ff488d3d 8c130000 e87fefff  .....H.=........
 4020e0 ffbf0800 0000e8e5 f0ffffc7 04246e6f  .............$no
 4020f0 626f66c7 44240464 79c64424 0600e980  bof.D$.dy.D$....
 402100 feffff48 8d3dc113 0000e851 efffffbf  ...H.=.....Q....
 402110 08000000 e8b7f0ff ff488d3d c5130000  .........H.=....
 402120 e83befff ffbf0800 0000e8a1 f0ffff48  .;.............H
 402130 8d3dc813 0000e825 efffffbf 08000000  .=.....%........
 402140 e88bf0ff ff488d3d cd130000 e80fefff  .....H.=........
 402150 ffbf0800 0000e875 f0ffff48 83ec0848  .......u...H...H
 402160 8d3dca13 0000e8f5 eeffff48 8d3dc713  .=.........H.=..
 402170 0000e8e9 eeffffbf 00000000 e823faff  .............#..
 402180 ff488d3d f0100000 e8d3eeff ffbf0800  .H.=............
 402190 0000e839 f0ffff48 83ec0848 89f2488d  ...9...H...H..H.
 4021a0 4e04488d 46145048 8d461050 4c8d4e0c  N.H.F.PH.F.PL.N.
 4021b0 4c8d4608 488d3595 130000b8 00000000  L.F.H.5.........
 4021c0 e8abefff ff4883c4 1083f805 7e054883  .....H......~.H.
 4021d0 c408c3e8 83ffffff 4883ec08 b8000000  ........H.......
 4021e0 00e810f9 ffff4885 c0746f8b 35cb3500  ......H..to.5.5.
 4021f0 004863c6 488d1480 48c1e204 488d05dd  .Hc.H...H...H...
 402200 35000048 01c248c7 c1ffffff ffb80000  5..H..H.........
 402210 00004889 d7f2ae48 f7d14883 e90183f9  ..H....H..H.....
 402220 4f0f84a1 00000083 e9014863 c94863c6  O.........Hc.Hc.
 402230 488d0480 48c1e004 4889c748 8d059e35  H...H...H..H...5
 402240 00004801 f8c60408 0083c601 89356a35  ..H..........5j5
 402250 00004889 d04883c4 08c3488b 054f3500  ..H..H....H..O5.
 402260 00483905 58350000 741b488d 3d0f1300  .H9.X5..t.H.=...
 402270 00e8baed ffff4885 c0741bbf 00000000  ......H..t......
 402280 e84befff ff488d3d d6120000 e8cfedff  .K...H.=........
 402290 ffe8c5fe ffff488b 05133500 00488905  ......H...5..H..
 4022a0 1c350000 b8000000 00e848f8 ffff4885  .5........H...H.
 4022b0 c00f8534 ffffff48 8d3da412 0000e89d  ...4...H.=......
 4022c0 edffffe8 93feffff 488d3dbc 120000e8  ........H.=.....
 4022d0 8cedffff e882feff ff4883ec 68bf0100  .........H..h...
 4022e0 0000e8bd f8ffff83 3dce3400 00067405  ........=.4...t.
 4022f0 4883c468 c3488d4c 2410488d 54240c48  H..h.H.L$.H.T$.H
 402300 8d35a012 0000488d 3dc33500 00b80000  .5....H.=.5.....
 402310 0000e859 eeffff83 f802741a 488d3ddd  ...Y......t.H.=.
 402320 0f0000e8 38edffff 488d3d01 100000e8  ....8...H.=.....
 402330 2cedffff ebba488d 7c241048 8d356a12  ,.....H.|$.H.5j.
 402340 0000e805 f6ffff85 c075d148 8d3d4e0f  .........u.H.=N.
 402350 0000e809 edffff48 8d3d6a0f 0000e8fd  .......H.=j.....
 402360 ecffffb8 00000000 e8f0f4ff ffebad90  ................
 402370 41574989 d7415649 89f64155 4189fd41  AWI..AVI..AUA..A
 402380 544c8d25 882a0000 55488d2d 882a0000  TL.%.*..UH.-.*..
 402390 534c29e5 4883ec08 e863ecff ff48c1fd  SL).H....c...H..
 4023a0 03741b31 db0f1f00 4c89fa4c 89f64489  .t.1....L..L..D.
 4023b0 ef41ff14 dc4883c3 014839dd 75ea4883  .A...H...H9.u.H.
 4023c0 c4085b5d 415c415d 415e415f c30f1f00  ..[]A\A]A^A_....
 4023d0 c3                                   .               
Contents of section .fini:
 4023d4 4883ec08 4883c408 c3                 H...H....       
Contents of section .rodata:
 403000 01000200 25733a20 4572726f 723a2043  ....%s: Error: C
 403010 6f756c64 6e277420 6f70656e 2025730a  ouldn't open %s.
 403020 00557361 67653a20 2573205b 3c696e70  .Usage: %s [<inp
 403030 75745f66 696c653e 5d0a0054 68617427  ut_file>]..That'
 403040 73206e75 6d626572 20322e20 204b6565  s number 2.  Kee
 403050 7020676f 696e6721 0048616c 66776179  p going!.Halfway
 403060 20746865 72652100 476f6f64 20776f72   there!.Good wor
 403070 6b212020 4f6e2074 6f207468 65206e65  k!  On to the ne
 403080 78742e2e 2e000000 57656c63 6f6d6520  xt......Welcome 
 403090 746f206d 79206669 656e6469 7368206c  to my fiendish l
 4030a0 6974746c 6520626f 6d622e20 596f7520  ittle bomb. You 
 4030b0 68617665 20362070 68617365 73207769  have 6 phases wi
 4030c0 74680000 00000000 77686963 6820746f  th......which to
 4030d0 20626c6f 7720796f 75727365 6c662075   blow yourself u
 4030e0 702e2048 61766520 61206e69 63652064  p. Have a nice d
 4030f0 61792100 00000000 50686173 65203120  ay!.....Phase 1 
 403100 64656675 7365642e 20486f77 2061626f  defused. How abo
 403110 75742074 6865206e 65787420 6f6e653f  ut the next one?
 403120 00000000 00000000 536f2079 6f752067  ........So you g
 403130 6f742074 68617420 6f6e652e 20205472  ot that one.  Tr
 403140 79207468 6973206f 6e652e00 00000000  y this one......
 403150 596f7520 61726520 74686520 44696574  You are the Diet
 403160 20436f6b 65206f66 20657669 6c2c206a   Coke of evil, j
 403170 75737420 6f6e6520 63616c6f 7269652c  ust one calorie,
 403180 206e6f74 20657669 6c20656e 6f756768   not evil enough
 403190 2e000000 00000000 576f7721 20596f75  ........Wow! You
 4031a0 27766520 64656675 73656420 74686520  've defused the 
 4031b0 73656372 65742073 74616765 21002564  secret stage!.%d
 4031c0 20256320 25640000 00000000 00000000   %c %d..........
 4031d0 00000000 00000000 00000000 00000000  ................
 4031e0 2ce3ffff 4ee3ffff 70e3ffff 92e3ffff  ,...N...p.......
 4031f0 b1e3ffff cce3ffff e7e3ffff 02e4ffff  ................
 403200 0a000000 02000000 0e000000 07000000  ................
 403210 08000000 0c000000 0f000000 0b000000  ................
 403220 00000000 04000000 01000000 0d000000  ................
 403230 03000000 09000000 06000000 05000000  ................
 403240 536f2079 6f752074 68696e6b 20796f75  So you think you
 403250 2063616e 2073746f 70207468 6520626f   can stop the bo
 403260 6d622077 69746820 6374726c 2d632c20  mb with ctrl-c, 
 403270 646f2079 6f753f00 596f7572 20696e73  do you?.Your ins
 403280 74727563 746f7220 68617320 6265656e  tructor has been
 403290 206e6f74 69666965 642e0000 00000000   notified.......
 4032a0 43757273 65732c20 796f7527 76652066  Curses, you've f
 4032b0 6f756e64 20746865 20736563 72657420  ound the secret 
 4032c0 70686173 65210000 42757420 66696e64  phase!..But find
 4032d0 696e6720 69742061 6e642073 6f6c7669  ing it and solvi
 4032e0 6e672069 74206172 65207175 69746520  ng it are quite 
 4032f0 64696666 6572656e 742e2e2e 00000000  different.......
 403300 436f6e67 72617475 6c617469 6f6e7321  Congratulations!
 403310 20596f75 27766520 64656675 73656420   You've defused 
 403320 74686520 626f6d62 21000000 00000000  the bomb!.......
 403330 596f7572 20696e73 74727563 746f7220  Your instructor 
 403340 68617320 6265656e 206e6f74 69666965  has been notifie
 403350 6420616e 64207769 6c6c2076 65726966  d and will verif
 403360 7920796f 75722073 6f6c7574 696f6e2e  y your solution.
 403370 0057656c 6c2e2e2e 004f4b2e 203a2d29  .Well....OK. :-)
 403380 00496e76 616c6964 20706861 73652573  .Invalid phase%s
 403390 0a004261 6420686f 73742028 31292e00  ..Bad host (1)..
 4033a0 42616420 686f7374 20283229 2e004261  Bad host (2)..Ba
 4033b0 6420686f 73742028 33292e00 3230322e  d host (3)..202.
 4033c0 3132302e 34302e38 35006465 66757365  120.40.85.defuse
 4033d0 64006578 706c6f64 65640073 6f636b65  d.exploded.socke
 4033e0 74206572 726f7200 636f6e6e 65637420  t error.connect 
 4033f0 6572726f 7200626f 6d622d68 65616465  error.bomb-heade
 403400 723a2573 3a25643a 25733a25 733a2564  r:%s:%d:%s:%s:%d
 403410 0a00626f 6d622d73 7472696e 673a2573  ..bomb-string:%s
 403420 3a25643a 25733a25 643a2573 0a00736f  :%d:%s:%d:%s..so
 403430 636b6574 20777269 74652065 72726f72  cket write error
 403440 00455252 4f523a20 64757028 30292065  .ERROR: dup(0) e
 403450 72726f72 00455252 4f523a20 636c6f73  rror.ERROR: clos
 403460 65206572 726f7200 4552524f 523a2074  e error.ERROR: t
 403470 6d706669 6c652065 72726f72 00537562  mpfile error.Sub
 403480 6a656374 3a20426f 6d62206e 6f746966  ject: Bomb notif
 403490 69636174 696f6e0a 006c6f63 616c686f  ication..localho
 4034a0 73740069 6373626f 6d62002f 7573722f  st.icsbomb./usr/
 4034b0 7362696e 2f73656e 646d6169 6c202d62  sbin/sendmail -b
 4034c0 6d002573 20257340 25730045 52524f52  m.%s %s@%s.ERROR
 4034d0 3a206e6f 74696669 63617469 6f6e2065  : notification e
 4034e0 72726f72 00455252 4f523a20 66636c6f  rror.ERROR: fclo
 4034f0 73652874 6d702920 6572726f 72004552  se(tmp) error.ER
 403500 524f523a 20647570 28746d70 73746469  ROR: dup(tmpstdi
 403510 6e292065 72726f72 00455252 4f523a20  n) error.ERROR: 
 403520 636c6f73 6528746d 70737464 696e2900  close(tmpstdin).
 403530 0a424f4f 4d212121 00546865 20626f6d  .BOOM!!!.The bom
 403540 62206861 7320626c 6f776e20 75702e00  b has blown up..
 403550 25642025 64202564 20256420 25642025  %d %d %d %d %d %
 403560 64004572 726f723a 20507265 6d617475  d.Error: Prematu
 403570 72652045 4f46206f 6e207374 64696e00  re EOF on stdin.
 403580 47524144 455f424f 4d420045 72726f72  GRADE_BOMB.Error
 403590 3a20496e 70757420 6c696e65 20746f6f  : Input line too
 4035a0 206c6f6e 67002564 20257300 61757374   long.%d %s.aust
 4035b0 696e706f 77657273 00                 inpowers.       
Contents of section .eh_frame_hdr:
 4035bc 011b033b f8000000 1e000000 64daffff  ...;........d...
 4035cc 54010000 74dcffff 14010000 a4dcffff  T...t...........
 4035dc 40010000 56ddffff 7c010000 a6deffff  @...V...|.......
 4035ec 9c010000 c6deffff b8010000 01dfffff  ................
 4035fc e0010000 5de0ffff fc010000 8be0ffff  ....]...........
 40360c 28020000 d0e0ffff 44020000 48e1ffff  (.......D...H...
 40361c 60020000 64e2ffff ac020000 a1e2ffff  `...d...........
 40362c cc020000 fae2ffff ec020000 51e3ffff  ............Q...
 40363c 00030000 73e3ffff 14030000 90e3ffff  ....s...........
 40364c 28030000 f8e3ffff 58030000 cde4ffff  (.......X.......
 40365c 8c030000 ffe4ffff a4030000 3ae5ffff  ............:...
 40366c cc030000 88e5ffff f4030000 e8e5ffff  ................
 40367c 34040000 3be9ffff 9c040000 9febffff  4...;...........
 40368c fc040000 dbebffff 10050000 1cecffff  ................
 40369c 34050000 1dedffff 50050000 b4edffff  4.......P.......
 4036ac 6c050000 14eeffff b4050000           l...........    
Contents of section .eh_frame:
 4036b8 14000000 00000000 017a5200 01781001  .........zR..x..
 4036c8 1b0c0708 90010710 10000000 1c000000  ................
 4036d8 58dbffff 2b000000 00000000 14000000  X...+...........
 4036e8 00000000 017a5200 01781001 1b0c0708  .....zR..x......
 4036f8 90010000 10000000 1c000000 5cdbffff  ............\...
 403708 01000000 00000000 24000000 30000000  ........$...0...
 403718 08d9ffff 10020000 000e1046 0e184a0f  ...........F..J.
 403728 0b770880 003f1a3b 2a332422 00000000  .w...?.;*3$"....
 403738 1c000000 58000000 d2dbffff 50010000  ....X.......P...
 403748 00410e10 83020300 010a0e08 410b0000  .A..........A...
 403758 18000000 78000000 02ddffff 20000000  ....x....... ...
 403768 00440e10 540a0e08 410b0000 24000000  .D..T...A...$...
 403778 94000000 06ddffff 3b000000 00410e10  ........;....A..
 403788 8602410e 18830344 0e40720e 18410e10  ..A....D.@r..A..
 403798 410e0800 18000000 bc000000 19ddffff  A...............
 4037a8 5c010000 00440e20 0350010a 0e08410b  \....D. .P....A.
 4037b8 28000000 d8000000 59deffff 2e000000  (.......Y.......
 4037c8 004b0e10 8602410e 18830344 0e205a0e  .K....A....D. Z.
 4037d8 18410e10 410e0841 c3c60000 18000000  .A..A..A........
 4037e8 04010000 5bdeffff 45000000 00440e20  ....[...E....D. 
 4037f8 790a0e08 410b0000 18000000 20010000  y...A....... ...
 403808 84deffff 78000000 00440e20 026c0a0e  ....x....D. .l..
 403818 08410b00 48000000 3c010000 e0deffff  .A..H...<.......
 403828 1c010000 00420e10 8f02420e 188e0342  .....B....B....B
 403838 0e208d04 420e288c 05410e30 8606410e  . ..B.(..A.0..A.
 403848 38830744 0e900103 03010e38 410e3041  8..D.......8A.0A
 403858 0e28420e 20420e18 420e1042 0e080000  .(B. B..B..B....
 403868 1c000000 88010000 b0dfffff 3d000000  ............=...
 403878 00490e10 510a0e08 410b5c0e 08000000  .I..Q...A.\.....
 403888 1c000000 a8010000 cddfffff 59000000  ............Y...
 403898 00410e10 83020249 0a0e0841 0b000000  .A.....I...A....
 4038a8 10000000 c8010000 06e0ffff 57000000  ............W...
 4038b8 00440e10 10000000 dc010000 49e0ffff  .D..........I...
 4038c8 22000000 00440e10 10000000 f0010000  "....D..........
 4038d8 57e0ffff 1d000000 00000000 2c000000  W...........,...
 4038e8 04020000 60e0ffff 68000000 00420e10  ....`...h....B..
 4038f8 8c02410e 18860341 0e208304 02520a0e  ..A....A. ...R..
 403908 18410e10 420e0841 0b000000 30000000  .A..B..A....0...
 403918 34020000 98e0ffff d5000000 00420e10  4............B..
 403928 8c02410e 18860341 0e208304 440e3002  ..A....A. ..D.0.
 403938 860a0e20 410e1841 0e10420e 08410b00  ... A..A..B..A..
 403948 14000000 68020000 39e1ffff 32000000  ....h...9...2...
 403958 00440e10 6d0e0800 24000000 80020000  .D..m...$.......
 403968 53e1ffff 3b000000 00410e10 8602410e  S...;....A....A.
 403978 18830344 0e20720e 18410e10 410e0800  ...D. r..A..A...
 403988 24000000 a8020000 66e1ffff 4e000000  $.......f...N...
 403998 00410e10 8602410e 18830344 0e200245  .A....A....D. .E
 4039a8 0e18410e 10410e08 3c000000 d0020000  ..A..A..<.......
 4039b8 8ce1ffff 60000000 00420e10 8e02420e  ....`....B....B.
 4039c8 188d0342 0e208c04 410e2886 05410e30  ...B. ..A.(..A.0
 4039d8 83060247 0a0e2841 0e20420e 18420e10  ...G..(A. B..B..
 4039e8 420e0841 0b000000 64000000 10030000  B..A....d.......
 4039f8 ace1ffff 53030000 00420e10 8f02420e  ....S....B....B.
 403a08 188e0342 0e208d04 420e288c 05410e30  ...B. ..B.(..A.0
 403a18 8606410e 38830747 0eb04903 2b010eb8  ..A.8..G..I.+...
 403a28 49470ec0 497a0eb0 49750eb8 49410ec0  IG..Iz..Iu..IA..
 403a38 49760eb0 4902680a 0e38410e 30410e28  Iv..I.h..8A.0A.(
 403a48 420e2042 0e18420e 10420e08 410b0000  B. B..B..B..A...
 403a58 5c000000 78030000 97e4ffff 64020000  \...x.......d...
 403a68 00420e10 8e02420e 188d0342 0e208c04  .B....B....B. ..
 403a78 410e2886 05410e30 8306440e 80010298  A.(..A.0..D.....
 403a88 0e880147 0e90016a 0e80015f 0e880141  ...G...j..._...A
 403a98 0e90016f 0e800102 850a0e30 410e2841  ...o.......0A.(A
 403aa8 0e20420e 18420e10 420e0841 0b000000  . B..B..B..A....
 403ab8 10000000 d8030000 9be6ffff 3c000000  ............<...
 403ac8 00440e10 20000000 ec030000 c3e6ffff  .D.. ...........
 403ad8 41000000 00440e10 4c0e1845 0e205d0e  A....D..L..E. ].
 403ae8 10490a0e 08410b00 18000000 10040000  .I...A..........
 403af8 e0e6ffff 01010000 00440e10 027d0a0e  .........D...}..
 403b08 08410b00 18000000 2c040000 c5e7ffff  .A......,.......
 403b18 96000000 00440e70 570a0e08 410b0000  .....D.pW...A...
 403b28 44000000 48040000 40e8ffff 5d000000  D...H...@...]...
 403b38 00420e10 8f02450e 188e0345 0e208d04  .B....E....E. ..
 403b48 450e288c 05480e30 8606480e 38830747  E.(..H.0..H.8..G
 403b58 0e406a0e 38410e30 410e2842 0e20420e  .@j.8A.0A.(B. B.
 403b68 18420e10 420e0800 10000000 90040000  .B..B...........
 403b78 58e8ffff 01000000 00000000 00000000  X...............
Contents of section .init_array:
 404e10 10134000 00000000                    ..@.....        
Contents of section .fini_array:
 404e18 e0124000 00000000                    ..@.....        
Contents of section .dynamic:
 404e20 01000000 00000000 0a010000 00000000  ................
 404e30 0c000000 00000000 00104000 00000000  ..........@.....
 404e40 0d000000 00000000 d4234000 00000000  .........#@.....
 404e50 19000000 00000000 104e4000 00000000  .........N@.....
 404e60 1b000000 00000000 08000000 00000000  ................
 404e70 1a000000 00000000 184e4000 00000000  .........N@.....
 404e80 1c000000 00000000 08000000 00000000  ................
 404e90 f5feff6f 00000000 08034000 00000000  ...o......@.....
 404ea0 05000000 00000000 a8064000 00000000  ..........@.....
 404eb0 06000000 00000000 30034000 00000000  ........0.@.....
 404ec0 0a000000 00000000 43010000 00000000  ........C.......
 404ed0 0b000000 00000000 18000000 00000000  ................
 404ee0 15000000 00000000 00000000 00000000  ................
 404ef0 03000000 00000000 00504000 00000000  .........P@.....
 404f00 02000000 00000000 00030000 00000000  ................
 404f10 14000000 00000000 07000000 00000000  ................
 404f20 17000000 00000000 d8084000 00000000  ..........@.....
 404f30 07000000 00000000 78084000 00000000  ........x.@.....
 404f40 08000000 00000000 60000000 00000000  ........`.......
 404f50 09000000 00000000 18000000 00000000  ................
 404f60 feffff6f 00000000 38084000 00000000  ...o....8.@.....
 404f70 ffffff6f 00000000 01000000 00000000  ...o............
 404f80 f0ffff6f 00000000 ec074000 00000000  ...o......@.....
 404f90 00000000 00000000 00000000 00000000  ................
 404fa0 00000000 00000000 00000000 00000000  ................
 404fb0 00000000 00000000 00000000 00000000  ................
 404fc0 00000000 00000000 00000000 00000000  ................
 404fd0 00000000 00000000 00000000 00000000  ................
 404fe0 00000000 00000000 00000000 00000000  ................
Contents of section .got:
 404ff0 00000000 00000000 00000000 00000000  ................
Contents of section .got.plt:
 405000 204e4000 00000000 00000000 00000000   N@.............
 405010 00000000 00000000 36104000 00000000  ........6.@.....
 405020 46104000 00000000 56104000 00000000  F.@.....V.@.....
 405030 66104000 00000000 76104000 00000000  f.@.....v.@.....
 405040 86104000 00000000 96104000 00000000  ..@.......@.....
 405050 a6104000 00000000 b6104000 00000000  ..@.......@.....
 405060 c6104000 00000000 d6104000 00000000  ..@.......@.....
 405070 e6104000 00000000 f6104000 00000000  ..@.......@.....
 405080 06114000 00000000 16114000 00000000  ..@.......@.....
 405090 26114000 00000000 36114000 00000000  &.@.....6.@.....
 4050a0 46114000 00000000 56114000 00000000  F.@.....V.@.....
 4050b0 66114000 00000000 76114000 00000000  f.@.....v.@.....
 4050c0 86114000 00000000 96114000 00000000  ..@.......@.....
 4050d0 a6114000 00000000 b6114000 00000000  ..@.......@.....
 4050e0 c6114000 00000000 d6114000 00000000  ..@.......@.....
 4050f0 e6114000 00000000 f6114000 00000000  ..@.......@.....
 405100 06124000 00000000 16124000 00000000  ..@.......@.....
 405110 26124000 00000000                    &.@.....        
Contents of section .data:
 405120 00000000 00000000 00000000 00000000  ................
 405130 00000000 00000000 00000000 00000000  ................
 405140 28000000 00000000 00000000 00000000  (...............
 405150 00000000 00000000 00000000 00000000  ................
 405160 01000000 00000000 00000000 00000000  ................
 405170 00000000 00000000 00000000 00000000  ................
 405180 63000000 00000000 00000000 00000000  c...............
 405190 00000000 00000000 00000000 00000000  ................
 4051a0 23000000 00000000 00000000 00000000  #...............
 4051b0 00000000 00000000 00000000 00000000  ................
 4051c0 07000000 00000000 00000000 00000000  ................
 4051d0 00000000 00000000 00000000 00000000  ................
 4051e0 14000000 00000000 00000000 00000000  ................
 4051f0 00000000 00000000 00000000 00000000  ................
 405200 2f000000 00000000 00000000 00000000  /...............
 405210 00000000 00000000 00000000 00000000  ................
 405220 e9030000 00000000 00000000 00000000  ................
 405230 00000000 00000000 00000000 00000000  ................
 405240 c0020000 06000000 00000000 00000000  ................
 405250 00000000 00000000 00000000 00000000  ................
 405260 53453230 32303231 4c616232 00000000  SE202021Lab2....
 405270 00000000 00000000 00000000 00000000  ................
 405280 00000000 00000000 00000000 00000000  ................
 405290 00000000 00000000 00000000 00000000  ................
 4052a0 00000000 00000000 00000000 00000000  ................
 4052b0 00000000 00000000 00000000 00000000  ................
 4052c0 00000000 00000000 00000000 00000000  ................
 4052d0 00000000 00000000 00000000 00000000  ................
 4052e0 00000000 00000000 00000000 00000000  ................
 4052f0 00000000 00000000 00000000 00000000  ................
 405300 00000000 00000000 00000000 00000000  ................
 405310 00000000 00000000 00000000 00000000  ................
 405320 00000000 00000000 00000000 00000000  ................
 405330 00000000 00000000 00000000 00000000  ................
 405340 00000000 00000000 00000000 00000000  ................
 405350 00000000 00000000 00000000 00000000  ................
 405360 00000000 00000000 00000000 00000000  ................
 405370 00000000 00000000 00000000 00000000  ................
 405380 00000000 00000000 00000000 00000000  ................
 405390 00000000 00000000 00000000 00000000  ................
 4053a0 00000000 00000000 00000000 00000000  ................
 4053b0 00000000 00000000 00000000 00000000  ................
 4053c0 00000000 00000000 00000000 00000000  ................
 4053d0 00000000 00000000 00000000 00000000  ................
 4053e0 00000000 00000000 00000000 00000000  ................
 4053f0 00000000 00000000 00000000 00000000  ................
 405400 00000000 00000000 00000000 00000000  ................
 405410 00000000 00000000 00000000 00000000  ................
 405420 00000000 00000000 00000000 00000000  ................
 405430 00000000 00000000 00000000 00000000  ................
 405440 00000000 00000000 00000000 00000000  ................
 405450 00000000 00000000 00000000 00000000  ................
 405460 00000000 00000000 00000000 00000000  ................
 405470 00000000 00000000 00000000 00000000  ................
 405480 00000000 00000000 00000000 00000000  ................
 405490 00000000 00000000 00000000 00000000  ................
 4054a0 00000000 00000000 00000000 00000000  ................
 4054b0 00000000 00000000 00000000 00000000  ................
 4054c0 00000000 00000000 00000000 00000000  ................
 4054d0 00000000 00000000 00000000 00000000  ................
 4054e0 00000000 00000000 00000000 00000000  ................
 4054f0 00000000 00000000 00000000 00000000  ................
 405500 00000000 00000000 00000000 00000000  ................
 405510 00000000 00000000 00000000 00000000  ................
 405520 00000000 00000000 00000000 00000000  ................
 405530 00000000 00000000 00000000 00000000  ................
 405540 00000000 00000000 00000000 00000000  ................
 405550 00000000 00000000 00000000 00000000  ................
 405560 00000000 00000000 00000000 00000000  ................
 405570 00000000 00000000 00000000 00000000  ................
 405580 00000000 00000000 00000000 00000000  ................
 405590 00000000 00000000 00000000 00000000  ................
 4055a0 00000000 00000000 00000000 00000000  ................
 4055b0 00000000 00000000 00000000 00000000  ................
 4055c0 00000000 00000000 00000000 00000000  ................
 4055d0 00000000 00000000 00000000 00000000  ................
 4055e0 00000000 00000000 00000000 00000000  ................
 4055f0 00000000 00000000 00000000 00000000  ................
 405600 00000000 00000000 00000000 00000000  ................
 405610 00000000 00000000 00000000 00000000  ................
 405620 00000000 00000000 00000000 00000000  ................
 405630 00000000 00000000 00000000 00000000  ................
 405640 00000000 00000000 00000000 00000000  ................
 405650 00000000 00000000 00000000 00000000  ................
 405660 87613401 00000000 00000000 00000000  .a4.............
 405670 24000000 00000000 90564000 00000000  $........V@.....
 405680 b0564000 00000000 00000000 00000000  .V@.............
 405690 08000000 00000000 10574000 00000000  .........W@.....
 4056a0 d0564000 00000000 00000000 00000000  .V@.............
 4056b0 32000000 00000000 f0564000 00000000  2........V@.....
 4056c0 30574000 00000000 00000000 00000000  0W@.............
 4056d0 16000000 00000000 e0514000 00000000  .........Q@.....
 4056e0 a0514000 00000000 00000000 00000000  .Q@.............
 4056f0 2d000000 00000000 40514000 00000000  -.......@Q@.....
 405700 00524000 00000000 00000000 00000000  .R@.............
 405710 06000000 00000000 60514000 00000000  ........`Q@.....
 405720 c0514000 00000000 00000000 00000000  .Q@.............
 405730 6b000000 00000000 80514000 00000000  k........Q@.....
 405740 20524000 00000000 00000000 00000000   R@.............
 405750 2a010000 01000000 60574000 00000000  *.......`W@.....
 405760 39030000 02000000 70574000 00000000  9.......pW@.....
 405770 2c020000 03000000 80574000 00000000  ,........W@.....
 405780 ed010000 04000000 90574000 00000000  .........W@.....
 405790 35030000 05000000 40524000 00000000  5.......@R@.....
Contents of section .comment:
 0000 4743433a 20284465 6269616e 20382e33  GCC: (Debian 8.3
 0010 2e302d36 2920382e 332e3000           .0-6) 8.3.0.    
Contents of section .debug_aranges:
 0000 2c000000 02000000 00000800 00000000  ,...............
 0010 12134000 00000000 50010000 00000000  ..@.....P.......
 0020 00000000 00000000 00000000 00000000  ................
Contents of section .debug_info:
 0000 96060000 04000000 00000801 5a000000  ............Z...
 0010 0c9c0000 00da0000 00121340 00000000  ...........@....
 0020 00500100 00000000 00000000 00024d00  .P............M.
 0030 000002d8 17390000 00030807 f5010000  .....9..........
 0040 030407fa 01000004 08030108 6f010000  ............o...
 0050 030207bc 01000003 01067101 00000302  ..........q.....
 0060 05430000 00050405 696e7400 03080532  .C......int....2
 0070 01000002 37020000 0396196c 00000002  ....7......l....
 0080 2d020000 03971b6c 00000006 08910000  -......l........
 0090 00030106 78010000 07910000 00086601  ....x.........f.
 00a0 0000d804 31082402 000009cf 02000004  ....1.$.........
 00b0 33076500 00000009 af010000 0436098b  3.e..........6..
 00c0 00000008 09c00000 00043709 8b000000  ..........7.....
 00d0 10098802 00000438 098b0000 00180997  .......8........
 00e0 01000004 39098b00 00002009 8e000000  ....9..... .....
 00f0 043a098b 00000028 09170200 00043b09  .:.....(......;.
 0100 8b000000 3009a300 0000043c 098b0000  ....0......<....
 0110 00380900 00000004 3d098b00 00004009  .8......=.....@.
 0120 a5020000 0440098b 00000048 09640200  .....@.....H.d..
 0130 00044109 8b000000 50093600 00000442  ..A.....P.6....B
 0140 098b0000 005809b7 00000004 44163d02  .....X......D.=.
 0150 00006009 3f020000 04461443 02000068  ..`.?....F.C...h
 0160 09bf0200 00044807 65000000 70097a02  ......H.e...p.z.
 0170 00000449 07650000 00740912 00000004  ...I.e...t......
 0180 4a0b7300 00007809 50010000 044d1250  J.s...x.P....M.P
 0190 00000080 09960200 00044e0f 57000000  ..........N.W...
 01a0 82098d01 0000044f 08490200 0083092c  .......O.I.....,
 01b0 01000004 510f5902 00008809 16000000  ....Q.Y.........
 01c0 04590d7f 00000090 09ec0100 00045b17  .Y............[.
 01d0 64020000 98094902 0000045c 196f0200  d.....I....\.o..
 01e0 00a009d4 01000004 5d144302 0000a809  ........].C.....
 01f0 cd000000 045e0947 000000b0 09e20100  .....^.G........
 0200 00045f0a 2d000000 b8098202 00000460  .._.-..........`
 0210 07650000 00c009a6 01000004 62087502  .e..........b.u.
 0220 0000c400 026a0100 00050719 9d000000  .....j..........
 0230 0add0200 00042b0e 0b820100 00060838  ......+........8
 0240 02000006 089d0000 000c9100 00005902  ..............Y.
 0250 00000d39 00000000 00060830 0200000b  ...9.......0....
 0260 e9010000 06085f02 00000b46 02000006  ......_....F....
 0270 086a0200 000c9100 00008502 00000d39  .j.............9
 0280 00000013 000e7402 00000689 0e910200  ......t.........
 0290 00060824 0200000e d6020000 068a0e91  ...$............
 02a0 0200000e 1d010000 068b0e91 0200000e  ................
 02b0 2d000000 071a0c65 0000000c d1020000  -......e........
 02c0 c6020000 0f0007bb 02000006 08980000  ................
 02d0 0007cb02 00000eb3 02000007 1b1ac602  ................
 02e0 000010b0 00000001 21079102 00000903  ........!.......
 02f0 c0574000 00000000 11cf0100 00012305  .W@...........#.
 0300 65000000 12134000 00000000 50010000  e.....@.....P...
 0310 00000000 019cf805 0000127d 01000001  ...........}....
 0320 230e6500 00000c00 00000000 0000125c  #.e............\
 0330 01000001 231af805 0000a100 00009700  ....#...........
 0340 00001354 00000001 250b8b00 00001f01  ...T....%.......
 0350 00001301 00001427 14400000 0000001d  .......'.@......
 0360 00000000 000000af 03000015 61010000  ............a...
 0370 08007c03 00001665 00000000 173a1440  ..|....e.....:.@
 0380 00000000 00fe0500 009b0300 00180155  ...............U
 0390 09030430 40000000 00000019 44144000  ...0@.......D.@.
 03a0 00000000 0b060000 18015501 38000014  ..........U.8...
 03b0 44144000 00000000 1e000000 00000000  D.@.............
 03c0 08040000 15610100 000800d5 03000016  .....a..........
 03d0 65000000 00175814 40000000 0000fe05  e.....X.@.......
 03e0 0000f403 00001801 55090321 30400000  ........U..!0@..
 03f0 00000000 19621440 00000000 000b0600  .....b.@........
 0400 00180155 01380000 17381340 00000000  ...U.8...8.@....
 0410 00160600 00270400 00180154 09035334  .....'.....T..S4
 0420 40000000 0000001a 4d134000 00000000  @.......M.@.....
 0430 22060000 17591340 00000000 002e0600  "....Y.@........
 0440 00530400 00180155 09038830 40000000  .S.....U...0@...
 0450 00000017 65134000 00000000 2e060000  ....e.@.........
 0460 72040000 18015509 03c83040 00000000  r.....U...0@....
 0470 00001a6a 13400000 00000039 0600001a  ...j.@.....9....
 0480 72134000 00000000 45060000 1a771340  r.@.....E....w.@
 0490 00000000 00510600 00178313 40000000  .....Q......@...
 04a0 00002e06 0000b804 00001801 550903f8  ............U...
 04b0 30400000 00000000 1a881340 00000000  0@.........@....
 04c0 00390600 001a9013 40000000 00005d06  .9......@.....].
 04d0 00001a95 13400000 00000051 06000017  .....@.....Q....
 04e0 a1134000 00000000 2e060000 fe040000  ..@.............
 04f0 18015509 033b3040 00000000 00001aa6  ..U..;0@........
 0500 13400000 00000039 0600001a ae134000  .@.....9......@.
 0510 00000000 69060000 1ab31340 00000000  ....i......@....
 0520 00510600 0017bf13 40000000 00002e06  .Q......@.......
 0530 00004405 00001801 55090359 30400000  ..D.....U..Y0@..
 0540 00000000 1ac41340 00000000 00390600  .......@.....9..
 0550 001acc13 40000000 00007506 00001ad1  ....@.....u.....
 0560 13400000 00000051 06000017 dd134000  .@.....Q......@.
 0570 00000000 2e060000 8a050000 18015509  ..............U.
 0580 03283140 00000000 00001ae2 13400000  .(1@.........@..
 0590 00000039 0600001a ea134000 00000000  ...9......@.....
 05a0 81060000 1aef1340 00000000 00510600  .......@.....Q..
 05b0 0017fb13 40000000 00002e06 0000d005  ....@...........
 05c0 00001801 55090368 30400000 00000000  ....U..h0@......
 05d0 1a001440 00000000 00390600 001a0814  ...@.....9......
 05e0 40000000 00008d06 00001a0d 14400000  @............@..
 05f0 00000051 06000000 06088b00 00001b49  ...Q...........I
 0600 01000049 01000006 4c010c1c 61010000  ...I....L...a...
 0610 61010000 08001d0c 0000000c 00000006  a...............
 0620 f60e1d54 02000054 02000009 09061c28  ...T...T.......(
 0630 0000001e 00000008 001d0b01 00000b01  ................
 0640 00000908 071d1501 00001501 00000a04  ................
 0650 0d1d3b01 00003b01 0000090b 061d0702  ..;...;.........
 0660 00000702 00000a05 0d1d0f02 00000f02  ................
 0670 00000a06 0d1d2401 00002401 00000a07  ......$...$.....
 0680 0d1d2502 00002502 00000a08 0d1dc702  ..%...%.........
 0690 0000c702 00000a09 0d00               ..........      
Contents of section .debug_abbrev:
 0000 01110125 0e130b03 0e1b0e11 01120710  ...%............
 0010 17000002 1600030e 3a0b3b0b 390b4913  ........:.;.9.I.
 0020 00000324 000b0b3e 0b030e00 00040f00  ...$...>........
 0030 0b0b0000 0524000b 0b3e0b03 08000006  .....$...>......
 0040 0f000b0b 49130000 07260049 13000008  ....I....&.I....
 0050 1301030e 0b0b3a0b 3b0b390b 01130000  ......:.;.9.....
 0060 090d0003 0e3a0b3b 0b390b49 13380b00  .....:.;.9.I.8..
 0070 000a1600 030e3a0b 3b0b390b 00000b13  ......:.;.9.....
 0080 00030e3c 1900000c 01014913 01130000  ...<......I.....
 0090 0d210049 132f0b00 000e3400 030e3a0b  .!.I./....4...:.
 00a0 3b0b390b 49133f19 3c190000 0f210000  ;.9.I.?.<....!..
 00b0 00103400 030e3a0b 3b0b390b 49133f19  ..4...:.;.9.I.?.
 00c0 02180000 112e013f 19030e3a 0b3b0b39  .......?...:.;.9
 00d0 0b271949 13110112 07401897 42190113  .'.I.....@..B...
 00e0 00001205 00030e3a 0b3b0b39 0b491302  .......:.;.9.I..
 00f0 17b74217 00001334 00030e3a 0b3b0b39  ..B....4...:.;.9
 0100 0b491302 17b74217 0000140b 01110112  .I....B.........
 0110 07011300 00152e01 3f19030e 3a0b3b0b  ........?...:.;.
 0120 27198701 193c1901 13000016 05004913  '....<........I.
 0130 00001789 82010111 01311301 13000018  .........1......
 0140 8a820100 02189142 18000019 89820101  .......B........
 0150 11013113 00001a89 82010011 01311300  ..1..........1..
 0160 001b2e00 3f193c19 6e0e030e 3a0b3b05  ....?.<.n...:.;.
 0170 390b0000 1c2e003f 193c196e 0e030e3a  9......?.<.n...:
 0180 0b3b0b00 001d2e00 3f193c19 6e0e030e  .;......?.<.n...
 0190 3a0b3b0b 390b0000 00                 :.;.9....       
Contents of section .debug_line:
 0000 bb010000 03001301 00000101 fb0e0d00  ................
 0010 01010101 00000001 0000012f 7573722f  .........../usr/
 0020 6c69622f 6763632f 7838365f 36342d6c  lib/gcc/x86_64-l
 0030 696e7578 2d676e75 2f382f69 6e636c75  inux-gnu/8/inclu
 0040 6465002f 7573722f 696e636c 7564652f  de./usr/include/
 0050 7838365f 36342d6c 696e7578 2d676e75  x86_64-linux-gnu
 0060 2f626974 73002f75 73722f69 6e636c75  /bits./usr/inclu
 0070 64652f78 38365f36 342d6c69 6e75782d  de/x86_64-linux-
 0080 676e752f 62697473 2f747970 6573002f  gnu/bits/types./
 0090 7573722f 696e636c 75646500 00626f6d  usr/include..bom
 00a0 622e6300 00000073 74646465 662e6800  b.c....stddef.h.
 00b0 01000074 79706573 2e680002 00007374  ...types.h....st
 00c0 72756374 5f46494c 452e6800 03000046  ruct_FILE.h....F
 00d0 494c452e 68000300 00737464 696f2e68  ILE.h....stdio.h
 00e0 00040000 7379735f 6572726c 6973742e  ....sys_errlist.
 00f0 68000200 003c6275 696c742d 696e3e00  h....<built-in>.
 0100 00000073 7570706f 72742e68 00000000  ...support.h....
 0110 70686173 65732e68 00000000 00050100  phases.h........
 0120 09021213 40000000 00000323 01060105  ....@......#....
 0130 05062119 05080601 050a06c2 050d0601  ..!.............
 0140 05020691 05110601 4a74050f 58050574  ........Jt..X..t
 0150 06030d90 5abbbd05 0d060105 05065983  ....Z.........Y.
 0160 5abe050d 06010505 06598359 be050d06  Z........Y.Y....
 0170 01050506 598359bd 050d0601 05050659  ....Y.Y........Y
 0180 8359bd05 0d060105 05065983 59be050d  .Y........Y.Y...
 0190 06010505 0659835d 05010613 05020603  .....Y.]........
 01a0 bb7f7405 09060105 06060309 082e082f  ..t............/
 01b0 069e0502 0618069e 069f020a 000101    ............... 
Contents of section .debug_str:
 0000 5f494f5f 6275665f 656e6400 666f7065  _IO_buf_end.fope
 0010 6e005f6f 6c645f6f 66667365 74005f5f  n._old_offset.__
 0020 6275696c 74696e5f 70757473 00737973  builtin_puts.sys
 0030 5f6e6572 72005f49 4f5f7361 76655f65  _nerr._IO_save_e
 0040 6e640073 686f7274 20696e74 0073697a  nd.short int.siz
 0050 655f7400 696e7075 7400474e 55204331  e_t.input.GNU C1
 0060 3720382e 332e3020 2d6d7475 6e653d67  7 8.3.0 -mtune=g
 0070 656e6572 6963202d 6d617263 683d7838  eneric -march=x8
 0080 362d3634 202d6767 6462202d 4f005f49  6-64 -ggdb -O._I
 0090 4f5f7772 6974655f 70747200 626f6d62  O_write_ptr.bomb
 00a0 2e63005f 494f5f62 75665f62 61736500  .c._IO_buf_base.
 00b0 696e6669 6c65005f 6d61726b 65727300  infile._markers.
 00c0 5f494f5f 72656164 5f656e64 005f6672  _IO_read_end._fr
 00d0 65657265 735f6275 66002f68 6f6d652f  eeres_buf./home/
 00e0 736a7475 2d696373 2d73766e 2f617263  sjtu-ics-svn/arc
 00f0 68766965 2f534532 302d6c61 62322f62  hvie/SE20-lab2/b
 0100 6f6d626c 61622f73 72630072 6561645f  omblab/src.read_
 0110 6c696e65 00706861 73655f31 00737464  line.phase_1.std
 0120 65727200 70686173 655f3400 5f6c6f63  err.phase_4._loc
 0130 6b006c6f 6e672069 6e740070 68617365  k.long int.phase
 0140 5f646566 75736564 00707269 6e746600  _defused.printf.
 0150 5f637572 5f636f6c 756d6e00 61726776  _cur_column.argv
 0160 00657869 74005f49 4f5f4649 4c450075  .exit._IO_FILE.u
 0170 6e736967 6e656420 63686172 00617267  nsigned char.arg
 0180 63005f49 4f5f6d61 726b6572 005f7368  c._IO_marker._sh
 0190 6f727462 7566005f 494f5f77 72697465  ortbuf._IO_write
 01a0 5f626173 65005f75 6e757365 6432005f  _base._unused2._
 01b0 494f5f72 6561645f 70747200 73686f72  IO_read_ptr.shor
 01c0 7420756e 7369676e 65642069 6e74006d  t unsigned int.m
 01d0 61696e00 5f667265 65726573 5f6c6973  ain._freeres_lis
 01e0 74005f5f 70616435 005f494f 5f636f64  t.__pad5._IO_cod
 01f0 65637674 006c6f6e 6720756e 7369676e  ecvt.long unsign
 0200 65642069 6e740070 68617365 5f320070  ed int.phase_2.p
 0210 68617365 5f33005f 494f5f77 72697465  hase_3._IO_write
 0220 5f656e64 00706861 73655f35 005f5f6f  _end.phase_5.__o
 0230 66663634 5f74005f 5f6f6666 5f74005f  ff64_t.__off_t._
 0240 63686169 6e005f49 4f5f7769 64655f64  chain._IO_wide_d
 0250 61746100 696e6974 69616c69 7a655f62  ata.initialize_b
 0260 6f6d6200 5f494f5f 6261636b 75705f62  omb._IO_backup_b
 0270 61736500 73746469 6e005f66 6c616773  ase.stdin._flags
 0280 32005f6d 6f646500 5f494f5f 72656164  2._mode._IO_read
 0290 5f626173 65005f76 7461626c 655f6f66  _base._vtable_of
 02a0 66736574 005f494f 5f736176 655f6261  fset._IO_save_ba
 02b0 73650073 79735f65 72726c69 7374005f  se.sys_errlist._
 02c0 66696c65 6e6f0070 68617365 5f36005f  fileno.phase_6._
 02d0 666c6167 73007374 646f7574 005f494f  flags.stdout._IO
 02e0 5f6c6f63 6b5f7400                    _lock_t.        
Contents of section .debug_loc:
 0000 00000000 00000000 00000000 00000000  ................
 0010 00000000 1a000000 00000000 0100551a  ..............U.
 0020 00000000 00000002 01000000 00000004  ................
 0030 00f30155 9f020100 00000000 00150100  ...U............
 0040 00000000 00010055 15010000 00000000  .......U........
 0050 32010000 00000000 0400f301 559f3201  2...........U.2.
 0060 00000000 00003c01 00000000 00000100  ......<.........
 0070 553c0100 00000000 00500100 00000000  U<.......P......
 0080 000400f3 01559f00 00000000 00000000  .....U..........
 0090 00000000 00000000 00000000 00000000  ................
 00a0 00000000 00000000 00210000 00000000  .........!......
 00b0 00010054 21000000 00000000 36000000  ...T!.......6...
 00c0 00000000 01005336 00000000 00000002  ......S6........
 00d0 01000000 00000004 00f30154 9f020100  ...........T....
 00e0 00000000 00150100 00000000 00010054  ...............T
 00f0 15010000 00000000 50010000 00000000  ........P.......
 0100 01005300 00000000 00000000 00000000  ..S.............
 0110 00000000 00000000 00000000 00000058  ...............X
 0120 00000000 0000005f 00000000 00000001  ......._........
 0130 00507600 00000000 00007d00 00000000  .Pv.......}.....
 0140 00000100 50940000 00000000 009b0000  ....P...........
 0150 00000000 00010050 b2000000 00000000  .......P........
 0160 b9000000 00000000 010050d0 00000000  ..........P.....
 0170 000000d7 00000000 00000001 0050ee00  .............P..
 0180 00000000 0000f500 00000000 00000100  ................
 0190 50000000 00000000 00000000 00000000  P...............
 01a0 00                                   .               

Disassembly of section .init:

0000000000401000 <_init>:
  401000:	48 83 ec 08          	sub    $0x8,%rsp
  401004:	48 8b 05 ed 3f 00 00 	mov    0x3fed(%rip),%rax        # 404ff8 <__gmon_start__>
  40100b:	48 85 c0             	test   %rax,%rax
  40100e:	74 02                	je     401012 <_init+0x12>
  401010:	ff d0                	callq  *%rax
  401012:	48 83 c4 08          	add    $0x8,%rsp
  401016:	c3                   	retq   

Disassembly of section .plt:

0000000000401020 <.plt>:
  401020:	ff 35 e2 3f 00 00    	pushq  0x3fe2(%rip)        # 405008 <_GLOBAL_OFFSET_TABLE_+0x8>
  401026:	ff 25 e4 3f 00 00    	jmpq   *0x3fe4(%rip)        # 405010 <_GLOBAL_OFFSET_TABLE_+0x10>
  40102c:	0f 1f 40 00          	nopl   0x0(%rax)

0000000000401030 <getenv@plt>:
  401030:	ff 25 e2 3f 00 00    	jmpq   *0x3fe2(%rip)        # 405018 <getenv@GLIBC_2.2.5>
  401036:	68 00 00 00 00       	pushq  $0x0
  40103b:	e9 e0 ff ff ff       	jmpq   401020 <.plt>

0000000000401040 <__errno_location@plt>:
  401040:	ff 25 da 3f 00 00    	jmpq   *0x3fda(%rip)        # 405020 <__errno_location@GLIBC_2.2.5>
  401046:	68 01 00 00 00       	pushq  $0x1
  40104b:	e9 d0 ff ff ff       	jmpq   401020 <.plt>

0000000000401050 <strcpy@plt>:
  401050:	ff 25 d2 3f 00 00    	jmpq   *0x3fd2(%rip)        # 405028 <strcpy@GLIBC_2.2.5>
  401056:	68 02 00 00 00       	pushq  $0x2
  40105b:	e9 c0 ff ff ff       	jmpq   401020 <.plt>

0000000000401060 <puts@plt>:
  401060:	ff 25 ca 3f 00 00    	jmpq   *0x3fca(%rip)        # 405030 <puts@GLIBC_2.2.5>
  401066:	68 03 00 00 00       	pushq  $0x3
  40106b:	e9 b0 ff ff ff       	jmpq   401020 <.plt>

0000000000401070 <write@plt>:
  401070:	ff 25 c2 3f 00 00    	jmpq   *0x3fc2(%rip)        # 405038 <write@GLIBC_2.2.5>
  401076:	68 04 00 00 00       	pushq  $0x4
  40107b:	e9 a0 ff ff ff       	jmpq   401020 <.plt>

0000000000401080 <fclose@plt>:
  401080:	ff 25 ba 3f 00 00    	jmpq   *0x3fba(%rip)        # 405040 <fclose@GLIBC_2.2.5>
  401086:	68 05 00 00 00       	pushq  $0x5
  40108b:	e9 90 ff ff ff       	jmpq   401020 <.plt>

0000000000401090 <system@plt>:
  401090:	ff 25 b2 3f 00 00    	jmpq   *0x3fb2(%rip)        # 405048 <system@GLIBC_2.2.5>
  401096:	68 06 00 00 00       	pushq  $0x6
  40109b:	e9 80 ff ff ff       	jmpq   401020 <.plt>

00000000004010a0 <printf@plt>:
  4010a0:	ff 25 aa 3f 00 00    	jmpq   *0x3faa(%rip)        # 405050 <printf@GLIBC_2.2.5>
  4010a6:	68 07 00 00 00       	pushq  $0x7
  4010ab:	e9 70 ff ff ff       	jmpq   401020 <.plt>

00000000004010b0 <rewind@plt>:
  4010b0:	ff 25 a2 3f 00 00    	jmpq   *0x3fa2(%rip)        # 405058 <rewind@GLIBC_2.2.5>
  4010b6:	68 08 00 00 00       	pushq  $0x8
  4010bb:	e9 60 ff ff ff       	jmpq   401020 <.plt>

00000000004010c0 <dup@plt>:
  4010c0:	ff 25 9a 3f 00 00    	jmpq   *0x3f9a(%rip)        # 405060 <dup@GLIBC_2.2.5>
  4010c6:	68 09 00 00 00       	pushq  $0x9
  4010cb:	e9 50 ff ff ff       	jmpq   401020 <.plt>

00000000004010d0 <close@plt>:
  4010d0:	ff 25 92 3f 00 00    	jmpq   *0x3f92(%rip)        # 405068 <close@GLIBC_2.2.5>
  4010d6:	68 0a 00 00 00       	pushq  $0xa
  4010db:	e9 40 ff ff ff       	jmpq   401020 <.plt>

00000000004010e0 <fputc@plt>:
  4010e0:	ff 25 8a 3f 00 00    	jmpq   *0x3f8a(%rip)        # 405070 <fputc@GLIBC_2.2.5>
  4010e6:	68 0b 00 00 00       	pushq  $0xb
  4010eb:	e9 30 ff ff ff       	jmpq   401020 <.plt>

00000000004010f0 <fgets@plt>:
  4010f0:	ff 25 82 3f 00 00    	jmpq   *0x3f82(%rip)        # 405078 <fgets@GLIBC_2.2.5>
  4010f6:	68 0c 00 00 00       	pushq  $0xc
  4010fb:	e9 20 ff ff ff       	jmpq   401020 <.plt>

0000000000401100 <tmpfile@plt>:
  401100:	ff 25 7a 3f 00 00    	jmpq   *0x3f7a(%rip)        # 405080 <tmpfile@GLIBC_2.2.5>
  401106:	68 0d 00 00 00       	pushq  $0xd
  40110b:	e9 10 ff ff ff       	jmpq   401020 <.plt>

0000000000401110 <signal@plt>:
  401110:	ff 25 72 3f 00 00    	jmpq   *0x3f72(%rip)        # 405088 <signal@GLIBC_2.2.5>
  401116:	68 0e 00 00 00       	pushq  $0xe
  40111b:	e9 00 ff ff ff       	jmpq   401020 <.plt>

0000000000401120 <gethostbyname@plt>:
  401120:	ff 25 6a 3f 00 00    	jmpq   *0x3f6a(%rip)        # 405090 <gethostbyname@GLIBC_2.2.5>
  401126:	68 0f 00 00 00       	pushq  $0xf
  40112b:	e9 f0 fe ff ff       	jmpq   401020 <.plt>

0000000000401130 <fprintf@plt>:
  401130:	ff 25 62 3f 00 00    	jmpq   *0x3f62(%rip)        # 405098 <fprintf@GLIBC_2.2.5>
  401136:	68 10 00 00 00       	pushq  $0x10
  40113b:	e9 e0 fe ff ff       	jmpq   401020 <.plt>

0000000000401140 <strtol@plt>:
  401140:	ff 25 5a 3f 00 00    	jmpq   *0x3f5a(%rip)        # 4050a0 <strtol@GLIBC_2.2.5>
  401146:	68 11 00 00 00       	pushq  $0x11
  40114b:	e9 d0 fe ff ff       	jmpq   401020 <.plt>

0000000000401150 <inet_pton@plt>:
  401150:	ff 25 52 3f 00 00    	jmpq   *0x3f52(%rip)        # 4050a8 <inet_pton@GLIBC_2.2.5>
  401156:	68 12 00 00 00       	pushq  $0x12
  40115b:	e9 c0 fe ff ff       	jmpq   401020 <.plt>

0000000000401160 <fflush@plt>:
  401160:	ff 25 4a 3f 00 00    	jmpq   *0x3f4a(%rip)        # 4050b0 <fflush@GLIBC_2.2.5>
  401166:	68 13 00 00 00       	pushq  $0x13
  40116b:	e9 b0 fe ff ff       	jmpq   401020 <.plt>

0000000000401170 <__isoc99_sscanf@plt>:
  401170:	ff 25 42 3f 00 00    	jmpq   *0x3f42(%rip)         # 4050b8 <__isoc99_sscanf@GLIBC_2.7>
  401176:	68 14 00 00 00       	pushq  $0x14
  40117b:	e9 a0 fe ff ff       	jmpq   401020 <.plt>

0000000000401180 <memmove@plt>:
  401180:	ff 25 3a 3f 00 00    	jmpq   *0x3f3a(%rip)        # 4050c0 <memmove@GLIBC_2.2.5>
  401186:	68 15 00 00 00       	pushq  $0x15
  40118b:	e9 90 fe ff ff       	jmpq   401020 <.plt>

0000000000401190 <cuserid@plt>:
  401190:	ff 25 32 3f 00 00    	jmpq   *0x3f32(%rip)        # 4050c8 <cuserid@GLIBC_2.2.5>
  401196:	68 16 00 00 00       	pushq  $0x16
  40119b:	e9 80 fe ff ff       	jmpq   401020 <.plt>

00000000004011a0 <fopen@plt>:
  4011a0:	ff 25 2a 3f 00 00    	jmpq   *0x3f2a(%rip)        # 4050d0 <fopen@GLIBC_2.2.5>
  4011a6:	68 17 00 00 00       	pushq  $0x17
  4011ab:	e9 70 fe ff ff       	jmpq   401020 <.plt>

00000000004011b0 <strcat@plt>:
  4011b0:	ff 25 22 3f 00 00    	jmpq   *0x3f22(%rip)        # 4050d8 <strcat@GLIBC_2.2.5>
  4011b6:	68 18 00 00 00       	pushq  $0x18
  4011bb:	e9 60 fe ff ff       	jmpq   401020 <.plt>

00000000004011c0 <sprintf@plt>:
  4011c0:	ff 25 1a 3f 00 00    	jmpq   *0x3f1a(%rip)        # 4050e0 <sprintf@GLIBC_2.2.5>
  4011c6:	68 19 00 00 00       	pushq  $0x19
  4011cb:	e9 50 fe ff ff       	jmpq   401020 <.plt>

00000000004011d0 <exit@plt>:
  4011d0:	ff 25 12 3f 00 00    	jmpq   *0x3f12(%rip)        # 4050e8 <exit@GLIBC_2.2.5>
  4011d6:	68 1a 00 00 00       	pushq  $0x1a
  4011db:	e9 40 fe ff ff       	jmpq   401020 <.plt>

00000000004011e0 <connect@plt>:
  4011e0:	ff 25 0a 3f 00 00    	jmpq   *0x3f0a(%rip)        # 4050f0 <connect@GLIBC_2.2.5>
  4011e6:	68 1b 00 00 00       	pushq  $0x1b
  4011eb:	e9 30 fe ff ff       	jmpq   401020 <.plt>

00000000004011f0 <fwrite@plt>:
  4011f0:	ff 25 02 3f 00 00    	jmpq   *0x3f02(%rip)        # 4050f8 <fwrite@GLIBC_2.2.5>
  4011f6:	68 1c 00 00 00       	pushq  $0x1c
  4011fb:	e9 20 fe ff ff       	jmpq   401020 <.plt>

0000000000401200 <sleep@plt>:
  401200:	ff 25 fa 3e 00 00    	jmpq   *0x3efa(%rip)        # 405100 <sleep@GLIBC_2.2.5>
  401206:	68 1d 00 00 00       	pushq  $0x1d
  40120b:	e9 10 fe ff ff       	jmpq   401020 <.plt>

0000000000401210 <__ctype_b_loc@plt>:
  401210:	ff 25 f2 3e 00 00    	jmpq   *0x3ef2(%rip)        # 405108 <__ctype_b_loc@GLIBC_2.3>
  401216:	68 1e 00 00 00       	pushq  $0x1e
  40121b:	e9 00 fe ff ff       	jmpq   401020 <.plt>

0000000000401220 <socket@plt>:
  401220:	ff 25 ea 3e 00 00    	jmpq   *0x3eea(%rip)        # 405110 <socket@GLIBC_2.2.5>
  401226:	68 1f 00 00 00       	pushq  $0x1f
  40122b:	e9 f0 fd ff ff       	jmpq   401020 <.plt>

Disassembly of section .text:

0000000000401230 <_start>:
  401230:	31 ed                	xor    %ebp,%ebp
  401232:	49 89 d1             	mov    %rdx,%r9
  401235:	5e                   	pop    %rsi
  401236:	48 89 e2             	mov    %rsp,%rdx
  401239:	48 83 e4 f0          	and    $0xfffffffffffffff0,%rsp
  40123d:	50                   	push   %rax
  40123e:	54                   	push   %rsp
  40123f:	49 c7 c0 d0 23 40 00 	mov    $0x4023d0,%r8
  401246:	48 c7 c1 70 23 40 00 	mov    $0x402370,%rcx
  40124d:	48 c7 c7 12 13 40 00 	mov    $0x401312,%rdi
  401254:	ff 15 96 3d 00 00    	callq  *0x3d96(%rip)        # 404ff0 <__libc_start_main@GLIBC_2.2.5>
  40125a:	f4                   	hlt    
  40125b:	0f 1f 44 00 00       	nopl   0x0(%rax,%rax,1)

0000000000401260 <_dl_relocate_static_pie>:
  401260:	c3                   	retq   
  401261:	66 2e 0f 1f 84 00 00 	nopw   %cs:0x0(%rax,%rax,1)
  401268:	00 00 00 
  40126b:	0f 1f 44 00 00       	nopl   0x0(%rax,%rax,1)

0000000000401270 <deregister_tm_clones>:
  401270:	b8 a0 57 40 00       	mov    $0x4057a0,%eax
  401275:	48 3d a0 57 40 00    	cmp    $0x4057a0,%rax
  40127b:	74 13                	je     401290 <deregister_tm_clones+0x20>
  40127d:	b8 00 00 00 00       	mov    $0x0,%eax
  401282:	48 85 c0             	test   %rax,%rax
  401285:	74 09                	je     401290 <deregister_tm_clones+0x20>
  401287:	bf a0 57 40 00       	mov    $0x4057a0,%edi
  40128c:	ff e0                	jmpq   *%rax
  40128e:	66 90                	xchg   %ax,%ax
  401290:	c3                   	retq   
  401291:	66 66 2e 0f 1f 84 00 	data16 nopw %cs:0x0(%rax,%rax,1)
  401298:	00 00 00 00 
  40129c:	0f 1f 40 00          	nopl   0x0(%rax)

00000000004012a0 <register_tm_clones>:
  4012a0:	be a0 57 40 00       	mov    $0x4057a0,%esi
  4012a5:	48 81 ee a0 57 40 00 	sub    $0x4057a0,%rsi
  4012ac:	48 c1 fe 03          	sar    $0x3,%rsi
  4012b0:	48 89 f0             	mov    %rsi,%rax
  4012b3:	48 c1 e8 3f          	shr    $0x3f,%rax
  4012b7:	48 01 c6             	add    %rax,%rsi
  4012ba:	48 d1 fe             	sar    %rsi
  4012bd:	74 11                	je     4012d0 <register_tm_clones+0x30>
  4012bf:	b8 00 00 00 00       	mov    $0x0,%eax
  4012c4:	48 85 c0             	test   %rax,%rax
  4012c7:	74 07                	je     4012d0 <register_tm_clones+0x30>
  4012c9:	bf a0 57 40 00       	mov    $0x4057a0,%edi
  4012ce:	ff e0                	jmpq   *%rax
  4012d0:	c3                   	retq   
  4012d1:	66 66 2e 0f 1f 84 00 	data16 nopw %cs:0x0(%rax,%rax,1)
  4012d8:	00 00 00 00 
  4012dc:	0f 1f 40 00          	nopl   0x0(%rax)

00000000004012e0 <__do_global_dtors_aux>:
  4012e0:	80 3d d1 44 00 00 00 	cmpb   $0x0,0x44d1(%rip)        # 4057b8 <completed.7325>
  4012e7:	75 17                	jne    401300 <__do_global_dtors_aux+0x20>
  4012e9:	55                   	push   %rbp
  4012ea:	48 89 e5             	mov    %rsp,%rbp
  4012ed:	e8 7e ff ff ff       	callq  401270 <deregister_tm_clones>
  4012f2:	c6 05 bf 44 00 00 01 	movb   $0x1,0x44bf(%rip)        # 4057b8 <completed.7325>
  4012f9:	5d                   	pop    %rbp
  4012fa:	c3                   	retq   
  4012fb:	0f 1f 44 00 00       	nopl   0x0(%rax,%rax,1)
  401300:	c3                   	retq   
  401301:	66 66 2e 0f 1f 84 00 	data16 nopw %cs:0x0(%rax,%rax,1)
  401308:	00 00 00 00 
  40130c:	0f 1f 40 00          	nopl   0x0(%rax)

0000000000401310 <frame_dummy>:
  401310:	eb 8e                	jmp    4012a0 <register_tm_clones>

0000000000401312 <main>:
  401312:	53                   	push   %rbx
  401313:	83 ff 01             	cmp    $0x1,%edi
  401316:	0f 84 f8 00 00 00    	je     401414 <main+0x102>
  40131c:	48 89 f3             	mov    %rsi,%rbx
  40131f:	83 ff 02             	cmp    $0x2,%edi
  401322:	0f 85 1c 01 00 00    	jne    401444 <main+0x132>
  401328:	48 8b 7e 08          	mov    0x8(%rsi),%rdi
  40132c:	48 8d 35 20 21 00 00 	lea    0x2120(%rip),%rsi        # 403453 <array.3192+0x253>
  401333:	e8 68 fe ff ff       	callq  4011a0 <fopen@plt>
  401338:	48 89 05 81 44 00 00 	mov    %rax,0x4481(%rip)        # 4057c0 <infile>
  40133f:	48 85 c0             	test   %rax,%rax
  401342:	0f 84 df 00 00 00    	je     401427 <main+0x115>
  401348:	e8 3c 07 00 00       	callq  401a89 <initialize_bomb>
  40134d:	48 8d 3d 34 1d 00 00 	lea    0x1d34(%rip),%rdi        # 403088 <_IO_stdin_used+0x88>
  401354:	e8 07 fd ff ff       	callq  401060 <puts@plt>
  401359:	48 8d 3d 68 1d 00 00 	lea    0x1d68(%rip),%rdi        # 4030c8 <_IO_stdin_used+0xc8>
  401360:	e8 fb fc ff ff       	callq  401060 <puts@plt>
  401365:	e8 6e 0e 00 00       	callq  4021d8 <read_line>
  40136a:	48 89 c7             	mov    %rax,%rdi
  40136d:	e8 f0 00 00 00       	callq  401462 <phase_1>
  401372:	e8 62 0f 00 00       	callq  4022d9 <phase_defused>
  401377:	48 8d 3d 7a 1d 00 00 	lea    0x1d7a(%rip),%rdi        # 4030f8 <_IO_stdin_used+0xf8>
  40137e:	e8 dd fc ff ff       	callq  401060 <puts@plt>
  401383:	e8 50 0e 00 00       	callq  4021d8 <read_line>
  401388:	48 89 c7             	mov    %rax,%rdi
  40138b:	e8 f2 00 00 00       	callq  401482 <phase_2>
  401390:	e8 44 0f 00 00       	callq  4022d9 <phase_defused>
  401395:	48 8d 3d 9f 1c 00 00 	lea    0x1c9f(%rip),%rdi        # 40303b <_IO_stdin_used+0x3b>
  40139c:	e8 bf fc ff ff       	callq  401060 <puts@plt>
  4013a1:	e8 32 0e 00 00       	callq  4021d8 <read_line>
  4013a6:	48 89 c7             	mov    %rax,%rdi
  4013a9:	e8 0f 01 00 00       	callq  4014bd <phase_3>
  4013ae:	e8 26 0f 00 00       	callq  4022d9 <phase_defused>
  4013b3:	48 8d 3d 9f 1c 00 00 	lea    0x1c9f(%rip),%rdi        # 403059 <_IO_stdin_used+0x59>
  4013ba:	e8 a1 fc ff ff       	callq  401060 <puts@plt>
  4013bf:	e8 14 0e 00 00       	callq  4021d8 <read_line>
  4013c4:	48 89 c7             	mov    %rax,%rdi
  4013c7:	e8 7b 02 00 00       	callq  401647 <phase_4>
  4013cc:	e8 08 0f 00 00       	callq  4022d9 <phase_defused>
  4013d1:	48 8d 3d 50 1d 00 00 	lea    0x1d50(%rip),%rdi        # 403128 <_IO_stdin_used+0x128>
  4013d8:	e8 83 fc ff ff       	callq  401060 <puts@plt>
  4013dd:	e8 f6 0d 00 00       	callq  4021d8 <read_line>
  4013e2:	48 89 c7             	mov    %rax,%rdi
  4013e5:	e8 a2 02 00 00       	callq  40168c <phase_5>
  4013ea:	e8 ea 0e 00 00       	callq  4022d9 <phase_defused>
  4013ef:	48 8d 3d 72 1c 00 00 	lea    0x1c72(%rip),%rdi        # 403068 <_IO_stdin_used+0x68>
  4013f6:	e8 65 fc ff ff       	callq  401060 <puts@plt>
  4013fb:	e8 d8 0d 00 00       	callq  4021d8 <read_line>
  401400:	48 89 c7             	mov    %rax,%rdi
  401403:	e8 fc 02 00 00       	callq  401704 <phase_6>
  401408:	e8 cc 0e 00 00       	callq  4022d9 <phase_defused>
  40140d:	b8 00 00 00 00       	mov    $0x0,%eax
  401412:	5b                   	pop    %rbx
  401413:	c3                   	retq   
  401414:	48 8b 05 95 43 00 00 	mov    0x4395(%rip),%rax        # 4057b0 <stdin@@GLIBC_2.2.5>
  40141b:	48 89 05 9e 43 00 00 	mov    %rax,0x439e(%rip)        # 4057c0 <infile>
  401422:	e9 21 ff ff ff       	jmpq   401348 <main+0x36>
  401427:	48 8b 53 08          	mov    0x8(%rbx),%rdx
  40142b:	48 8b 33             	mov    (%rbx),%rsi
  40142e:	48 8d 3d cf 1b 00 00 	lea    0x1bcf(%rip),%rdi        # 403004 <_IO_stdin_used+0x4>
  401435:	e8 66 fc ff ff       	callq  4010a0 <printf@plt>
  40143a:	bf 08 00 00 00       	mov    $0x8,%edi
  40143f:	e8 8c fd ff ff       	callq  4011d0 <exit@plt>
  401444:	48 8b 36             	mov    (%rsi),%rsi
  401447:	48 8d 3d d3 1b 00 00 	lea    0x1bd3(%rip),%rdi        # 403021 <_IO_stdin_used+0x21>
  40144e:	b8 00 00 00 00       	mov    $0x0,%eax
  401453:	e8 48 fc ff ff       	callq  4010a0 <printf@plt>
  401458:	bf 08 00 00 00       	mov    $0x8,%edi
  40145d:	e8 6e fd ff ff       	callq  4011d0 <exit@plt>

0000000000401462 <phase_1>:
  401462:	48 83 ec 08          	sub    $0x8,%rsp
  401466:	48 8d 35 e3 1c 00 00 	lea    0x1ce3(%rip),%rsi        # 403150 <_IO_stdin_used+0x150>
  40146d:	e8 da 04 00 00       	callq  40194c <strings_not_equal>
  401472:	85 c0                	test   %eax,%eax
  401474:	75 05                	jne    40147b <phase_1+0x19>
  401476:	48 83 c4 08          	add    $0x8,%rsp
  40147a:	c3                   	retq   
  40147b:	e8 db 0c 00 00       	callq  40215b <explode_bomb>
  401480:	eb f4                	jmp    401476 <phase_1+0x14>

0000000000401482 <phase_2>:
  401482:	55                   	push   %rbp
  401483:	53                   	push   %rbx
  401484:	48 83 ec 28          	sub    $0x28,%rsp
  401488:	48 89 e5             	mov    %rsp,%rbp
  40148b:	48 89 ee             	mov    %rbp,%rsi
  40148e:	e8 04 0d 00 00       	callq  402197 <read_six_numbers>
  401493:	48 89 eb             	mov    %rbp,%rbx
  401496:	48 83 c5 14          	add    $0x14,%rbp
  40149a:	eb 0e                	jmp    4014aa <phase_2+0x28>
  40149c:	e8 ba 0c 00 00       	callq  40215b <explode_bomb>
  4014a1:	48 83 c3 04          	add    $0x4,%rbx
  4014a5:	48 39 eb             	cmp    %rbp,%rbx
  4014a8:	74 0c                	je     4014b6 <phase_2+0x34>
  4014aa:	8b 03                	mov    (%rbx),%eax
  4014ac:	83 c0 05             	add    $0x5,%eax
  4014af:	39 43 04             	cmp    %eax,0x4(%rbx)
  4014b2:	74 ed                	je     4014a1 <phase_2+0x1f>
  4014b4:	eb e6                	jmp    40149c <phase_2+0x1a>
  4014b6:	48 83 c4 28          	add    $0x28,%rsp
  4014ba:	5b                   	pop    %rbx
  4014bb:	5d                   	pop    %rbp
  4014bc:	c3                   	retq   

00000000004014bd <phase_3>:
  4014bd:	48 83 ec 18          	sub    $0x18,%rsp
  4014c1:	48 8d 4c 24 07       	lea    0x7(%rsp),%rcx
  4014c6:	48 8d 54 24 0c       	lea    0xc(%rsp),%rdx
  4014cb:	4c 8d 44 24 08       	lea    0x8(%rsp),%r8
  4014d0:	48 8d 35 e7 1c 00 00 	lea    0x1ce7(%rip),%rsi        # 4031be <_IO_stdin_used+0x1be>
  4014d7:	b8 00 00 00 00       	mov    $0x0,%eax
  4014dc:	e8 8f fc ff ff       	callq  401170 <__isoc99_sscanf@plt>
  4014e1:	83 f8 02             	cmp    $0x2,%eax
  4014e4:	7e 1f                	jle    401505 <phase_3+0x48>
  4014e6:	83 7c 24 0c 07       	cmpl   $0x7,0xc(%rsp)
  4014eb:	0f 87 0c 01 00 00    	ja     4015fd <phase_3+0x140>
  4014f1:	8b 44 24 0c          	mov    0xc(%rsp),%eax
  4014f5:	48 8d 15 e4 1c 00 00 	lea    0x1ce4(%rip),%rdx        # 4031e0 <_IO_stdin_used+0x1e0>
  4014fc:	48 63 04 82          	movslq (%rdx,%rax,4),%rax
  401500:	48 01 d0             	add    %rdx,%rax
  401503:	ff e0                	jmpq   *%rax
  401505:	e8 51 0c 00 00       	callq  40215b <explode_bomb>
  40150a:	eb da                	jmp    4014e6 <phase_3+0x29>
  40150c:	b8 73 00 00 00       	mov    $0x73,%eax
  401511:	81 7c 24 08 35 02 00 	cmpl   $0x235,0x8(%rsp)
  401518:	00 
  401519:	0f 84 e8 00 00 00    	je     401607 <phase_3+0x14a>
  40151f:	e8 37 0c 00 00       	callq  40215b <explode_bomb>
  401524:	b8 73 00 00 00       	mov    $0x73,%eax
  401529:	e9 d9 00 00 00       	jmpq   401607 <phase_3+0x14a>
  40152e:	b8 62 00 00 00       	mov    $0x62,%eax
  401533:	81 7c 24 08 2a 01 00 	cmpl   $0x12a,0x8(%rsp)
  40153a:	00 
  40153b:	0f 84 c6 00 00 00    	je     401607 <phase_3+0x14a>
  401541:	e8 15 0c 00 00       	callq  40215b <explode_bomb>
  401546:	b8 62 00 00 00       	mov    $0x62,%eax
  40154b:	e9 b7 00 00 00       	jmpq   401607 <phase_3+0x14a>
  401550:	b8 63 00 00 00       	mov    $0x63,%eax
  401555:	81 7c 24 08 94 00 00 	cmpl   $0x94,0x8(%rsp)
  40155c:	00 
  40155d:	0f 84 a4 00 00 00    	je     401607 <phase_3+0x14a>
  401563:	e8 f3 0b 00 00       	callq  40215b <explode_bomb>
  401568:	b8 63 00 00 00       	mov    $0x63,%eax
  40156d:	e9 95 00 00 00       	jmpq   401607 <phase_3+0x14a>
  401572:	b8 70 00 00 00       	mov    $0x70,%eax
  401577:	81 7c 24 08 a8 03 00 	cmpl   $0x3a8,0x8(%rsp)
  40157e:	00 
  40157f:	0f 84 82 00 00 00    	je     401607 <phase_3+0x14a>
  401585:	e8 d1 0b 00 00       	callq  40215b <explode_bomb>
  40158a:	b8 70 00 00 00       	mov    $0x70,%eax
  40158f:	eb 76                	jmp    401607 <phase_3+0x14a>
  401591:	b8 66 00 00 00       	mov    $0x66,%eax
  401596:	81 7c 24 08 5f 02 00 	cmpl   $0x25f,0x8(%rsp)
  40159d:	00 
  40159e:	74 67                	je     401607 <phase_3+0x14a>
  4015a0:	e8 b6 0b 00 00       	callq  40215b <explode_bomb>
  4015a5:	b8 66 00 00 00       	mov    $0x66,%eax
  4015aa:	eb 5b                	jmp    401607 <phase_3+0x14a>
  4015ac:	b8 73 00 00 00       	mov    $0x73,%eax
  4015b1:	81 7c 24 08 ef 01 00 	cmpl   $0x1ef,0x8(%rsp)
  4015b8:	00 
  4015b9:	74 4c                	je     401607 <phase_3+0x14a>
  4015bb:	e8 9b 0b 00 00       	callq  40215b <explode_bomb>
  4015c0:	b8 73 00 00 00       	mov    $0x73,%eax
  4015c5:	eb 40                	jmp    401607 <phase_3+0x14a>
  4015c7:	b8 61 00 00 00       	mov    $0x61,%eax
  4015cc:	81 7c 24 08 dd 00 00 	cmpl   $0xdd,0x8(%rsp)
  4015d3:	00 
  4015d4:	74 31                	je     401607 <phase_3+0x14a>
  4015d6:	e8 80 0b 00 00       	callq  40215b <explode_bomb>
  4015db:	b8 61 00 00 00       	mov    $0x61,%eax
  4015e0:	eb 25                	jmp    401607 <phase_3+0x14a>
  4015e2:	b8 64 00 00 00       	mov    $0x64,%eax
  4015e7:	81 7c 24 08 ea 01 00 	cmpl   $0x1ea,0x8(%rsp)
  4015ee:	00 
  4015ef:	74 16                	je     401607 <phase_3+0x14a>
  4015f1:	e8 65 0b 00 00       	callq  40215b <explode_bomb>
  4015f6:	b8 64 00 00 00       	mov    $0x64,%eax
  4015fb:	eb 0a                	jmp    401607 <phase_3+0x14a>
  4015fd:	e8 59 0b 00 00       	callq  40215b <explode_bomb>
  401602:	b8 73 00 00 00       	mov    $0x73,%eax
  401607:	38 44 24 07          	cmp    %al,0x7(%rsp)
  40160b:	75 05                	jne    401612 <phase_3+0x155>
  40160d:	48 83 c4 18          	add    $0x18,%rsp
  401611:	c3                   	retq   
  401612:	e8 44 0b 00 00       	callq  40215b <explode_bomb>
  401617:	eb f4                	jmp    40160d <phase_3+0x150>

0000000000401619 <func4>:
  401619:	b8 01 00 00 00       	mov    $0x1,%eax
  40161e:	83 ff 01             	cmp    $0x1,%edi
  401621:	7e 23                	jle    401646 <func4+0x2d>
  401623:	55                   	push   %rbp
  401624:	53                   	push   %rbx
  401625:	48 83 ec 08          	sub    $0x8,%rsp
  401629:	89 fb                	mov    %edi,%ebx
  40162b:	8d 7f ff             	lea    -0x1(%rdi),%edi
  40162e:	e8 e6 ff ff ff       	callq  401619 <func4>
  401633:	89 c5                	mov    %eax,%ebp
  401635:	8d 7b fe             	lea    -0x2(%rbx),%edi
  401638:	e8 dc ff ff ff       	callq  401619 <func4>
  40163d:	01 e8                	add    %ebp,%eax
  40163f:	48 83 c4 08          	add    $0x8,%rsp
  401643:	5b                   	pop    %rbx
  401644:	5d                   	pop    %rbp
  401645:	c3                   	retq   
  401646:	c3                   	retq   

0000000000401647 <phase_4>:
  401647:	48 83 ec 18          	sub    $0x18,%rsp
  40164b:	48 8d 54 24 0c       	lea    0xc(%rsp),%rdx
  401650:	48 8d 35 6d 1b 00 00 	lea    0x1b6d(%rip),%rsi        # 4031c4 <_IO_stdin_used+0x1c4>
  401657:	b8 00 00 00 00       	mov    $0x0,%eax
  40165c:	e8 0f fb ff ff       	callq  401170 <__isoc99_sscanf@plt>
  401661:	83 f8 01             	cmp    $0x1,%eax
  401664:	75 07                	jne    40166d <phase_4+0x26>
  401666:	83 7c 24 0c 00       	cmpl   $0x0,0xc(%rsp)
  40166b:	7f 05                	jg     401672 <phase_4+0x2b>
  40166d:	e8 e9 0a 00 00       	callq  40215b <explode_bomb>
  401672:	8b 7c 24 0c          	mov    0xc(%rsp),%edi
  401676:	e8 9e ff ff ff       	callq  401619 <func4>
  40167b:	83 f8 59             	cmp    $0x59,%eax
  40167e:	75 05                	jne    401685 <phase_4+0x3e>
  401680:	48 83 c4 18          	add    $0x18,%rsp
  401684:	c3                   	retq   
  401685:	e8 d1 0a 00 00       	callq  40215b <explode_bomb>
  40168a:	eb f4                	jmp    401680 <phase_4+0x39>

000000000040168c <phase_5>:
  40168c:	48 83 ec 18          	sub    $0x18,%rsp
  401690:	48 8d 4c 24 08       	lea    0x8(%rsp),%rcx
  401695:	48 8d 54 24 0c       	lea    0xc(%rsp),%rdx
  40169a:	48 8d 35 bb 1e 00 00 	lea    0x1ebb(%rip),%rsi        # 40355c <array.3192+0x35c>
  4016a1:	b8 00 00 00 00       	mov    $0x0,%eax
  4016a6:	e8 c5 fa ff ff       	callq  401170 <__isoc99_sscanf@plt>
  4016ab:	83 f8 01             	cmp    $0x1,%eax
  4016ae:	7e 4d                	jle    4016fd <phase_5+0x71>
  4016b0:	8b 44 24 0c          	mov    0xc(%rsp),%eax
  4016b4:	83 e0 0f             	and    $0xf,%eax
  4016b7:	89 44 24 0c          	mov    %eax,0xc(%rsp)
  4016bb:	83 f8 0f             	cmp    $0xf,%eax
  4016be:	74 33                	je     4016f3 <phase_5+0x67>
  4016c0:	b9 00 00 00 00       	mov    $0x0,%ecx
  4016c5:	ba 00 00 00 00       	mov    $0x0,%edx
  4016ca:	48 8d 35 2f 1b 00 00 	lea    0x1b2f(%rip),%rsi        # 403200 <array.3192>
  4016d1:	83 c2 01             	add    $0x1,%edx
  4016d4:	48 98                	cltq   
  4016d6:	8b 04 86             	mov    (%rsi,%rax,4),%eax
  4016d9:	01 c1                	add    %eax,%ecx
  4016db:	83 f8 0f             	cmp    $0xf,%eax
  4016de:	75 f1                	jne    4016d1 <phase_5+0x45>
  4016e0:	c7 44 24 0c 0f 00 00 	movl   $0xf,0xc(%rsp)
  4016e7:	00 
  4016e8:	83 fa 09             	cmp    $0x9,%edx
  4016eb:	75 06                	jne    4016f3 <phase_5+0x67>
  4016ed:	39 4c 24 08          	cmp    %ecx,0x8(%rsp)
  4016f1:	74 05                	je     4016f8 <phase_5+0x6c>
  4016f3:	e8 63 0a 00 00       	callq  40215b <explode_bomb>
  4016f8:	48 83 c4 18          	add    $0x18,%rsp
  4016fc:	c3                   	retq   
  4016fd:	e8 59 0a 00 00       	callq  40215b <explode_bomb>
  401702:	eb ac                	jmp    4016b0 <phase_5+0x24>

0000000000401704 <phase_6>:
  401704:	41 57                	push   %r15
  401706:	41 56                	push   %r14
  401708:	41 55                	push   %r13
  40170a:	41 54                	push   %r12
  40170c:	55                   	push   %rbp
  40170d:	53                   	push   %rbx
  40170e:	48 83 ec 58          	sub    $0x58,%rsp
  401712:	4c 8d 74 24 30       	lea    0x30(%rsp),%r14
  401717:	4c 89 f6             	mov    %r14,%rsi
  40171a:	e8 78 0a 00 00       	callq  402197 <read_six_numbers>
  40171f:	4d 89 f4             	mov    %r14,%r12
  401722:	41 bf 01 00 00 00    	mov    $0x1,%r15d
  401728:	4c 8d 6c 24 30       	lea    0x30(%rsp),%r13
  40172d:	e9 a4 00 00 00       	jmpq   4017d6 <phase_6+0xd2>
  401732:	e8 24 0a 00 00       	callq  40215b <explode_bomb>
  401737:	e9 ac 00 00 00       	jmpq   4017e8 <phase_6+0xe4>
  40173c:	48 89 e6             	mov    %rsp,%rsi
  40173f:	49 8d 7c 24 18       	lea    0x18(%r12),%rdi
  401744:	41 8b 0c 24          	mov    (%r12),%ecx
  401748:	b8 01 00 00 00       	mov    $0x1,%eax
  40174d:	48 8d 15 fc 3f 00 00 	lea    0x3ffc(%rip),%rdx        # 405750 <node1>
  401754:	83 f9 01             	cmp    $0x1,%ecx
  401757:	7e 0b                	jle    401764 <phase_6+0x60>
  401759:	48 8b 52 08          	mov    0x8(%rdx),%rdx
  40175d:	83 c0 01             	add    $0x1,%eax
  401760:	39 c8                	cmp    %ecx,%eax
  401762:	75 f5                	jne    401759 <phase_6+0x55>
  401764:	48 89 16             	mov    %rdx,(%rsi)
  401767:	49 83 c4 04          	add    $0x4,%r12
  40176b:	48 83 c6 08          	add    $0x8,%rsi
  40176f:	4c 39 e7             	cmp    %r12,%rdi
  401772:	75 d0                	jne    401744 <phase_6+0x40>
  401774:	48 8b 1c 24          	mov    (%rsp),%rbx
  401778:	48 8b 44 24 08       	mov    0x8(%rsp),%rax
  40177d:	48 89 43 08          	mov    %rax,0x8(%rbx)
  401781:	48 8b 54 24 10       	mov    0x10(%rsp),%rdx
  401786:	48 89 50 08          	mov    %rdx,0x8(%rax)
  40178a:	48 8b 44 24 18       	mov    0x18(%rsp),%rax
  40178f:	48 89 42 08          	mov    %rax,0x8(%rdx)
  401793:	48 8b 54 24 20       	mov    0x20(%rsp),%rdx
  401798:	48 89 50 08          	mov    %rdx,0x8(%rax)
  40179c:	48 8b 44 24 28       	mov    0x28(%rsp),%rax
  4017a1:	48 89 42 08          	mov    %rax,0x8(%rdx)
  4017a5:	48 c7 40 08 00 00 00 	movq   $0x0,0x8(%rax)
  4017ac:	00 
  4017ad:	bd 05 00 00 00       	mov    $0x5,%ebp
  4017b2:	eb 4c                	jmp    401800 <phase_6+0xfc>
  4017b4:	e8 a2 09 00 00       	callq  40215b <explode_bomb>
  4017b9:	48 83 c3 01          	add    $0x1,%rbx
  4017bd:	83 fb 05             	cmp    $0x5,%ebx
  4017c0:	7f 0c                	jg     4017ce <phase_6+0xca>
  4017c2:	41 8b 44 9d 00       	mov    0x0(%r13,%rbx,4),%eax
  4017c7:	39 45 00             	cmp    %eax,0x0(%rbp)
  4017ca:	75 ed                	jne    4017b9 <phase_6+0xb5>
  4017cc:	eb e6                	jmp    4017b4 <phase_6+0xb0>
  4017ce:	49 83 c7 01          	add    $0x1,%r15
  4017d2:	49 83 c6 04          	add    $0x4,%r14
  4017d6:	4c 89 f5             	mov    %r14,%rbp
  4017d9:	41 8b 06             	mov    (%r14),%eax
  4017dc:	83 e8 01             	sub    $0x1,%eax
  4017df:	83 f8 05             	cmp    $0x5,%eax
  4017e2:	0f 87 4a ff ff ff    	ja     401732 <phase_6+0x2e>
  4017e8:	49 83 ff 06          	cmp    $0x6,%r15
  4017ec:	0f 84 4a ff ff ff    	je     40173c <phase_6+0x38>
  4017f2:	4c 89 fb             	mov    %r15,%rbx
  4017f5:	eb cb                	jmp    4017c2 <phase_6+0xbe>
  4017f7:	48 8b 5b 08          	mov    0x8(%rbx),%rbx
  4017fb:	83 ed 01             	sub    $0x1,%ebp
  4017fe:	74 11                	je     401811 <phase_6+0x10d>
  401800:	48 8b 43 08          	mov    0x8(%rbx),%rax
  401804:	8b 00                	mov    (%rax),%eax
  401806:	39 03                	cmp    %eax,(%rbx)
  401808:	7d ed                	jge    4017f7 <phase_6+0xf3>
  40180a:	e8 4c 09 00 00       	callq  40215b <explode_bomb>
  40180f:	eb e6                	jmp    4017f7 <phase_6+0xf3>
  401811:	48 83 c4 58          	add    $0x58,%rsp
  401815:	5b                   	pop    %rbx
  401816:	5d                   	pop    %rbp
  401817:	41 5c                	pop    %r12
  401819:	41 5d                	pop    %r13
  40181b:	41 5e                	pop    %r14
  40181d:	41 5f                	pop    %r15
  40181f:	c3                   	retq   

0000000000401820 <fun7>:
  401820:	48 85 ff             	test   %rdi,%rdi
  401823:	74 32                	je     401857 <fun7+0x37>
  401825:	48 83 ec 08          	sub    $0x8,%rsp
  401829:	8b 17                	mov    (%rdi),%edx
  40182b:	39 f2                	cmp    %esi,%edx
  40182d:	7f 0c                	jg     40183b <fun7+0x1b>
  40182f:	b8 00 00 00 00       	mov    $0x0,%eax
  401834:	75 12                	jne    401848 <fun7+0x28>
  401836:	48 83 c4 08          	add    $0x8,%rsp
  40183a:	c3                   	retq   
  40183b:	48 8b 7f 08          	mov    0x8(%rdi),%rdi
  40183f:	e8 dc ff ff ff       	callq  401820 <fun7>
  401844:	01 c0                	add    %eax,%eax
  401846:	eb ee                	jmp    401836 <fun7+0x16>
  401848:	48 8b 7f 10          	mov    0x10(%rdi),%rdi
  40184c:	e8 cf ff ff ff       	callq  401820 <fun7>
  401851:	8d 44 00 01          	lea    0x1(%rax,%rax,1),%eax
  401855:	eb df                	jmp    401836 <fun7+0x16>
  401857:	b8 ff ff ff ff       	mov    $0xffffffff,%eax
  40185c:	c3                   	retq   

000000000040185d <secret_phase>:
  40185d:	53                   	push   %rbx
  40185e:	e8 75 09 00 00       	callq  4021d8 <read_line>
  401863:	ba 0a 00 00 00       	mov    $0xa,%edx
  401868:	be 00 00 00 00       	mov    $0x0,%esi
  40186d:	48 89 c7             	mov    %rax,%rdi
  401870:	e8 cb f8 ff ff       	callq  401140 <strtol@plt>
  401875:	48 89 c3             	mov    %rax,%rbx
  401878:	8d 40 ff             	lea    -0x1(%rax),%eax
  40187b:	3d e8 03 00 00       	cmp    $0x3e8,%eax
  401880:	77 26                	ja     4018a8 <secret_phase+0x4b>
  401882:	89 de                	mov    %ebx,%esi
  401884:	48 8d 3d e5 3d 00 00 	lea    0x3de5(%rip),%rdi        # 405670 <n1>
  40188b:	e8 90 ff ff ff       	callq  401820 <fun7>
  401890:	83 f8 03             	cmp    $0x3,%eax
  401893:	75 1a                	jne    4018af <secret_phase+0x52>
  401895:	48 8d 3d fc 18 00 00 	lea    0x18fc(%rip),%rdi        # 403198 <_IO_stdin_used+0x198>
  40189c:	e8 bf f7 ff ff       	callq  401060 <puts@plt>
  4018a1:	e8 33 0a 00 00       	callq  4022d9 <phase_defused>
  4018a6:	5b                   	pop    %rbx
  4018a7:	c3                   	retq   
  4018a8:	e8 ae 08 00 00       	callq  40215b <explode_bomb>
  4018ad:	eb d3                	jmp    401882 <secret_phase+0x25>
  4018af:	e8 a7 08 00 00       	callq  40215b <explode_bomb>
  4018b4:	eb df                	jmp    401895 <secret_phase+0x38>

00000000004018b6 <sig_handler>:
  4018b6:	48 83 ec 08          	sub    $0x8,%rsp
  4018ba:	48 8d 3d 7f 19 00 00 	lea    0x197f(%rip),%rdi        # 403240 <array.3192+0x40>
  4018c1:	e8 9a f7 ff ff       	callq  401060 <puts@plt>
  4018c6:	bf 03 00 00 00       	mov    $0x3,%edi
  4018cb:	e8 30 f9 ff ff       	callq  401200 <sleep@plt>
  4018d0:	48 8d 3d 9a 1a 00 00 	lea    0x1a9a(%rip),%rdi        # 403371 <array.3192+0x171>
  4018d7:	b8 00 00 00 00       	mov    $0x0,%eax
  4018dc:	e8 bf f7 ff ff       	callq  4010a0 <printf@plt>
  4018e1:	48 8b 3d b8 3e 00 00 	mov    0x3eb8(%rip),%rdi        # 4057a0 <stdout@@GLIBC_2.2.5>
  4018e8:	e8 73 f8 ff ff       	callq  401160 <fflush@plt>
  4018ed:	bf 01 00 00 00       	mov    $0x1,%edi
  4018f2:	e8 09 f9 ff ff       	callq  401200 <sleep@plt>
  4018f7:	48 8d 3d 7b 1a 00 00 	lea    0x1a7b(%rip),%rdi        # 403379 <array.3192+0x179>
  4018fe:	e8 5d f7 ff ff       	callq  401060 <puts@plt>
  401903:	bf 10 00 00 00       	mov    $0x10,%edi
  401908:	e8 c3 f8 ff ff       	callq  4011d0 <exit@plt>

000000000040190d <invalid_phase>:
  40190d:	48 83 ec 08          	sub    $0x8,%rsp
  401911:	48 89 fe             	mov    %rdi,%rsi
  401914:	48 8d 3d 66 1a 00 00 	lea    0x1a66(%rip),%rdi        # 403381 <array.3192+0x181>
  40191b:	b8 00 00 00 00       	mov    $0x0,%eax
  401920:	e8 7b f7 ff ff       	callq  4010a0 <printf@plt>
  401925:	bf 08 00 00 00       	mov    $0x8,%edi
  40192a:	e8 a1 f8 ff ff       	callq  4011d0 <exit@plt>

000000000040192f <string_length>:
  40192f:	80 3f 00             	cmpb   $0x0,(%rdi)
  401932:	74 12                	je     401946 <string_length+0x17>
  401934:	b8 00 00 00 00       	mov    $0x0,%eax
  401939:	48 83 c7 01          	add    $0x1,%rdi
  40193d:	83 c0 01             	add    $0x1,%eax
  401940:	80 3f 00             	cmpb   $0x0,(%rdi)
  401943:	75 f4                	jne    401939 <string_length+0xa>
  401945:	c3                   	retq   
  401946:	b8 00 00 00 00       	mov    $0x0,%eax
  40194b:	c3                   	retq   

000000000040194c <strings_not_equal>:
  40194c:	41 54                	push   %r12
  40194e:	55                   	push   %rbp
  40194f:	53                   	push   %rbx
  401950:	48 89 fb             	mov    %rdi,%rbx
  401953:	48 89 f5             	mov    %rsi,%rbp
  401956:	e8 d4 ff ff ff       	callq  40192f <string_length>
  40195b:	41 89 c4             	mov    %eax,%r12d
  40195e:	48 89 ef             	mov    %rbp,%rdi
  401961:	e8 c9 ff ff ff       	callq  40192f <string_length>
  401966:	ba 01 00 00 00       	mov    $0x1,%edx
  40196b:	41 39 c4             	cmp    %eax,%r12d
  40196e:	75 2f                	jne    40199f <strings_not_equal+0x53>
  401970:	0f b6 03             	movzbl (%rbx),%eax
  401973:	84 c0                	test   %al,%al
  401975:	74 2f                	je     4019a6 <strings_not_equal+0x5a>
  401977:	3a 45 00             	cmp    0x0(%rbp),%al
  40197a:	75 31                	jne    4019ad <strings_not_equal+0x61>
  40197c:	b8 01 00 00 00       	mov    $0x1,%eax
  401981:	0f b6 14 03          	movzbl (%rbx,%rax,1),%edx
  401985:	84 d2                	test   %dl,%dl
  401987:	74 11                	je     40199a <strings_not_equal+0x4e>
  401989:	48 83 c0 01          	add    $0x1,%rax
  40198d:	38 54 05 ff          	cmp    %dl,-0x1(%rbp,%rax,1)
  401991:	74 ee                	je     401981 <strings_not_equal+0x35>
  401993:	ba 01 00 00 00       	mov    $0x1,%edx
  401998:	eb 05                	jmp    40199f <strings_not_equal+0x53>
  40199a:	ba 00 00 00 00       	mov    $0x0,%edx
  40199f:	89 d0                	mov    %edx,%eax
  4019a1:	5b                   	pop    %rbx
  4019a2:	5d                   	pop    %rbp
  4019a3:	41 5c                	pop    %r12
  4019a5:	c3                   	retq   
  4019a6:	ba 00 00 00 00       	mov    $0x0,%edx
  4019ab:	eb f2                	jmp    40199f <strings_not_equal+0x53>
  4019ad:	ba 01 00 00 00       	mov    $0x1,%edx
  4019b2:	eb eb                	jmp    40199f <strings_not_equal+0x53>

00000000004019b4 <open_clientfd>:
  4019b4:	41 54                	push   %r12
  4019b6:	55                   	push   %rbp
  4019b7:	53                   	push   %rbx
  4019b8:	48 83 ec 10          	sub    $0x10,%rsp
  4019bc:	49 89 fc             	mov    %rdi,%r12
  4019bf:	89 f5                	mov    %esi,%ebp
  4019c1:	ba 00 00 00 00       	mov    $0x0,%edx
  4019c6:	be 01 00 00 00       	mov    $0x1,%esi
  4019cb:	bf 02 00 00 00       	mov    $0x2,%edi
  4019d0:	e8 4b f8 ff ff       	callq  401220 <socket@plt>
  4019d5:	85 c0                	test   %eax,%eax
  4019d7:	78 6e                	js     401a47 <open_clientfd+0x93>
  4019d9:	89 c3                	mov    %eax,%ebx
  4019db:	4c 89 e7             	mov    %r12,%rdi
  4019de:	e8 3d f7 ff ff       	callq  401120 <gethostbyname@plt>
  4019e3:	48 85 c0             	test   %rax,%rax
  4019e6:	74 75                	je     401a5d <open_clientfd+0xa9>
  4019e8:	49 89 e4             	mov    %rsp,%r12
  4019eb:	48 c7 44 24 02 00 00 	movq   $0x0,0x2(%rsp)
  4019f2:	00 00 
  4019f4:	41 c7 44 24 0a 00 00 	movl   $0x0,0xa(%r12)
  4019fb:	00 00 
  4019fd:	66 41 c7 44 24 0e 00 	movw   $0x0,0xe(%r12)
  401a04:	00 
  401a05:	66 c7 04 24 02 00    	movw   $0x2,(%rsp)
  401a0b:	48 63 50 14          	movslq 0x14(%rax),%rdx
  401a0f:	48 8b 40 18          	mov    0x18(%rax),%rax
  401a13:	49 8d 7c 24 04       	lea    0x4(%r12),%rdi
  401a18:	48 8b 30             	mov    (%rax),%rsi
  401a1b:	e8 60 f7 ff ff       	callq  401180 <memmove@plt>
  401a20:	66 c1 c5 08          	rol    $0x8,%bp
  401a24:	66 89 6c 24 02       	mov    %bp,0x2(%rsp)
  401a29:	ba 10 00 00 00       	mov    $0x10,%edx
  401a2e:	4c 89 e6             	mov    %r12,%rsi
  401a31:	89 df                	mov    %ebx,%edi
  401a33:	e8 a8 f7 ff ff       	callq  4011e0 <connect@plt>
  401a38:	85 c0                	test   %eax,%eax
  401a3a:	78 37                	js     401a73 <open_clientfd+0xbf>
  401a3c:	89 d8                	mov    %ebx,%eax
  401a3e:	48 83 c4 10          	add    $0x10,%rsp
  401a42:	5b                   	pop    %rbx
  401a43:	5d                   	pop    %rbp
  401a44:	41 5c                	pop    %r12
  401a46:	c3                   	retq   
  401a47:	48 8d 3d 44 19 00 00 	lea    0x1944(%rip),%rdi        # 403392 <array.3192+0x192>
  401a4e:	e8 0d f6 ff ff       	callq  401060 <puts@plt>
  401a53:	bf 08 00 00 00       	mov    $0x8,%edi
  401a58:	e8 73 f7 ff ff       	callq  4011d0 <exit@plt>
  401a5d:	48 8d 3d 3c 19 00 00 	lea    0x193c(%rip),%rdi        # 4033a0 <array.3192+0x1a0>
  401a64:	e8 f7 f5 ff ff       	callq  401060 <puts@plt>
  401a69:	bf 08 00 00 00       	mov    $0x8,%edi
  401a6e:	e8 5d f7 ff ff       	callq  4011d0 <exit@plt>
  401a73:	48 8d 3d 34 19 00 00 	lea    0x1934(%rip),%rdi        # 4033ae <array.3192+0x1ae>
  401a7a:	e8 e1 f5 ff ff       	callq  401060 <puts@plt>
  401a7f:	bf 08 00 00 00       	mov    $0x8,%edi
  401a84:	e8 47 f7 ff ff       	callq  4011d0 <exit@plt>

0000000000401a89 <initialize_bomb>:
  401a89:	48 83 ec 08          	sub    $0x8,%rsp
  401a8d:	48 8d 35 22 fe ff ff 	lea    -0x1de(%rip),%rsi        # 4018b6 <sig_handler>
  401a94:	bf 02 00 00 00       	mov    $0x2,%edi
  401a99:	e8 72 f6 ff ff       	callq  401110 <signal@plt>
  401a9e:	be 50 00 00 00       	mov    $0x50,%esi
  401aa3:	48 8d 3d 12 19 00 00 	lea    0x1912(%rip),%rdi        # 4033bc <array.3192+0x1bc>
  401aaa:	e8 05 ff ff ff       	callq  4019b4 <open_clientfd>
  401aaf:	89 c7                	mov    %eax,%edi
  401ab1:	e8 1a f6 ff ff       	callq  4010d0 <close@plt>
  401ab6:	48 83 c4 08          	add    $0x8,%rsp
  401aba:	c3                   	retq   

0000000000401abb <blank_line>:
  401abb:	55                   	push   %rbp
  401abc:	53                   	push   %rbx
  401abd:	48 83 ec 08          	sub    $0x8,%rsp
  401ac1:	48 89 fd             	mov    %rdi,%rbp
  401ac4:	0f b6 5d 00          	movzbl 0x0(%rbp),%ebx
  401ac8:	84 db                	test   %bl,%bl
  401aca:	74 1e                	je     401aea <blank_line+0x2f>
  401acc:	e8 3f f7 ff ff       	callq  401210 <__ctype_b_loc@plt>
  401ad1:	48 83 c5 01          	add    $0x1,%rbp
  401ad5:	48 0f be db          	movsbq %bl,%rbx
  401ad9:	48 8b 00             	mov    (%rax),%rax
  401adc:	f6 44 58 01 20       	testb  $0x20,0x1(%rax,%rbx,2)
  401ae1:	75 e1                	jne    401ac4 <blank_line+0x9>
  401ae3:	b8 00 00 00 00       	mov    $0x0,%eax
  401ae8:	eb 05                	jmp    401aef <blank_line+0x34>
  401aea:	b8 01 00 00 00       	mov    $0x1,%eax
  401aef:	48 83 c4 08          	add    $0x8,%rsp
  401af3:	5b                   	pop    %rbx
  401af4:	5d                   	pop    %rbp
  401af5:	c3                   	retq   

0000000000401af6 <skip>:
  401af6:	55                   	push   %rbp
  401af7:	53                   	push   %rbx
  401af8:	48 83 ec 08          	sub    $0x8,%rsp
  401afc:	48 8d 2d dd 3c 00 00 	lea    0x3cdd(%rip),%rbp        # 4057e0 <input_strings>
  401b03:	48 63 05 b2 3c 00 00 	movslq 0x3cb2(%rip),%rax        # 4057bc <num_input_strings>
  401b0a:	48 8d 3c 80          	lea    (%rax,%rax,4),%rdi
  401b0e:	48 c1 e7 04          	shl    $0x4,%rdi
  401b12:	48 01 ef             	add    %rbp,%rdi
  401b15:	48 8b 15 a4 3c 00 00 	mov    0x3ca4(%rip),%rdx        # 4057c0 <infile>
  401b1c:	be 50 00 00 00       	mov    $0x50,%esi
  401b21:	e8 ca f5 ff ff       	callq  4010f0 <fgets@plt>
  401b26:	48 89 c3             	mov    %rax,%rbx
  401b29:	48 85 c0             	test   %rax,%rax
  401b2c:	74 0c                	je     401b3a <skip+0x44>
  401b2e:	48 89 c7             	mov    %rax,%rdi
  401b31:	e8 85 ff ff ff       	callq  401abb <blank_line>
  401b36:	85 c0                	test   %eax,%eax
  401b38:	75 c9                	jne    401b03 <skip+0xd>
  401b3a:	48 89 d8             	mov    %rbx,%rax
  401b3d:	48 83 c4 08          	add    $0x8,%rsp
  401b41:	5b                   	pop    %rbx
  401b42:	5d                   	pop    %rbp
  401b43:	c3                   	retq   

0000000000401b44 <writen>:
  401b44:	41 56                	push   %r14
  401b46:	41 55                	push   %r13
  401b48:	41 54                	push   %r12
  401b4a:	55                   	push   %rbp
  401b4b:	53                   	push   %rbx
  401b4c:	49 89 d6             	mov    %rdx,%r14
  401b4f:	48 85 d2             	test   %rdx,%rdx
  401b52:	74 3b                	je     401b8f <writen+0x4b>
  401b54:	41 89 fc             	mov    %edi,%r12d
  401b57:	48 89 f5             	mov    %rsi,%rbp
  401b5a:	48 89 d3             	mov    %rdx,%rbx
  401b5d:	41 bd 00 00 00 00    	mov    $0x0,%r13d
  401b63:	eb 08                	jmp    401b6d <writen+0x29>
  401b65:	48 01 c5             	add    %rax,%rbp
  401b68:	48 29 c3             	sub    %rax,%rbx
  401b6b:	74 22                	je     401b8f <writen+0x4b>
  401b6d:	48 89 da             	mov    %rbx,%rdx
  401b70:	48 89 ee             	mov    %rbp,%rsi
  401b73:	44 89 e7             	mov    %r12d,%edi
  401b76:	e8 f5 f4 ff ff       	callq  401070 <write@plt>
  401b7b:	48 85 c0             	test   %rax,%rax
  401b7e:	7f e5                	jg     401b65 <writen+0x21>
  401b80:	e8 bb f4 ff ff       	callq  401040 <__errno_location@plt>
  401b85:	83 38 04             	cmpl   $0x4,(%rax)
  401b88:	75 11                	jne    401b9b <writen+0x57>
  401b8a:	4c 89 e8             	mov    %r13,%rax
  401b8d:	eb d6                	jmp    401b65 <writen+0x21>
  401b8f:	4c 89 f0             	mov    %r14,%rax
  401b92:	5b                   	pop    %rbx
  401b93:	5d                   	pop    %rbp
  401b94:	41 5c                	pop    %r12
  401b96:	41 5d                	pop    %r13
  401b98:	41 5e                	pop    %r14
  401b9a:	c3                   	retq   
  401b9b:	48 c7 c0 ff ff ff ff 	mov    $0xffffffffffffffff,%rax
  401ba2:	eb ee                	jmp    401b92 <writen+0x4e>

0000000000401ba4 <send_msg>:
  401ba4:	41 57                	push   %r15
  401ba6:	41 56                	push   %r14
  401ba8:	41 55                	push   %r13
  401baa:	41 54                	push   %r12
  401bac:	55                   	push   %rbp
  401bad:	53                   	push   %rbx
  401bae:	48 81 ec 78 24 00 00 	sub    $0x2478,%rsp
  401bb5:	41 89 fc             	mov    %edi,%r12d
  401bb8:	ba 00 00 00 00       	mov    $0x0,%edx
  401bbd:	be 01 00 00 00       	mov    $0x1,%esi
  401bc2:	bf 02 00 00 00       	mov    $0x2,%edi
  401bc7:	e8 54 f6 ff ff       	callq  401220 <socket@plt>
  401bcc:	89 44 24 0c          	mov    %eax,0xc(%rsp)
  401bd0:	85 c0                	test   %eax,%eax
  401bd2:	0f 88 28 02 00 00    	js     401e00 <send_msg+0x25c>
  401bd8:	48 8d 94 24 64 24 00 	lea    0x2464(%rsp),%rdx
  401bdf:	00 
  401be0:	48 c7 84 24 64 24 00 	movq   $0x0,0x2464(%rsp)
  401be7:	00 00 00 00 00 
  401bec:	c7 42 08 00 00 00 00 	movl   $0x0,0x8(%rdx)
  401bf3:	66 c7 84 24 60 24 00 	movw   $0x2,0x2460(%rsp)
  401bfa:	00 02 00 
  401bfd:	66 c7 84 24 62 24 00 	movw   $0x7ac8,0x2462(%rsp)
  401c04:	00 c8 7a 
  401c07:	48 8d 35 ae 17 00 00 	lea    0x17ae(%rip),%rsi        # 4033bc <array.3192+0x1bc>
  401c0e:	bf 02 00 00 00       	mov    $0x2,%edi
  401c13:	b8 00 00 00 00       	mov    $0x0,%eax
  401c18:	e8 33 f5 ff ff       	callq  401150 <inet_pton@plt>
  401c1d:	85 c0                	test   %eax,%eax
  401c1f:	0f 88 0d 02 00 00    	js     401e32 <send_msg+0x28e>
  401c25:	48 8d b4 24 60 24 00 	lea    0x2460(%rsp),%rsi
  401c2c:	00 
  401c2d:	ba 10 00 00 00       	mov    $0x10,%edx
  401c32:	8b 7c 24 0c          	mov    0xc(%rsp),%edi
  401c36:	e8 a5 f5 ff ff       	callq  4011e0 <connect@plt>
  401c3b:	85 c0                	test   %eax,%eax
  401c3d:	0f 88 2a 02 00 00    	js     401e6d <send_msg+0x2c9>
  401c43:	48 8d 6c 24 60       	lea    0x60(%rsp),%rbp
  401c48:	48 b8 53 75 62 6a 65 	movabs $0x3a7463656a627553,%rax
  401c4f:	63 74 3a 
  401c52:	48 ba 20 42 6f 6d 62 	movabs $0x6f6e20626d6f4220,%rdx
  401c59:	20 6e 6f 
  401c5c:	48 89 44 24 60       	mov    %rax,0x60(%rsp)
  401c61:	48 89 54 24 68       	mov    %rdx,0x68(%rsp)
  401c66:	48 b8 74 69 66 69 63 	movabs $0x6974616369666974,%rax
  401c6d:	61 74 69 
  401c70:	48 89 44 24 70       	mov    %rax,0x70(%rsp)
  401c75:	c7 44 24 78 6f 6e 0a 	movl   $0xa6e6f,0x78(%rsp)
  401c7c:	00 
  401c7d:	48 8d 9c 24 60 04 00 	lea    0x460(%rsp),%rbx
  401c84:	00 
  401c85:	48 89 ee             	mov    %rbp,%rsi
  401c88:	48 89 df             	mov    %rbx,%rdi
  401c8b:	e8 20 f5 ff ff       	callq  4011b0 <strcat@plt>
  401c90:	66 c7 44 24 60 0a 00 	movw   $0xa,0x60(%rsp)
  401c97:	48 89 ee             	mov    %rbp,%rsi
  401c9a:	48 89 df             	mov    %rbx,%rdi
  401c9d:	e8 0e f5 ff ff       	callq  4011b0 <strcat@plt>
  401ca2:	bf 00 00 00 00       	mov    $0x0,%edi
  401ca7:	e8 e4 f4 ff ff       	callq  401190 <cuserid@plt>
  401cac:	48 85 c0             	test   %rax,%rax
  401caf:	0f 84 f3 01 00 00    	je     401ea8 <send_msg+0x304>
  401cb5:	48 8d 7c 24 10       	lea    0x10(%rsp),%rdi
  401cba:	48 89 c6             	mov    %rax,%rsi
  401cbd:	e8 8e f3 ff ff       	callq  401050 <strcpy@plt>
  401cc2:	45 85 e4             	test   %r12d,%r12d
  401cc5:	4c 8d 0d fe 16 00 00 	lea    0x16fe(%rip),%r9        # 4033ca <array.3192+0x1ca>
  401ccc:	48 8d 05 ff 16 00 00 	lea    0x16ff(%rip),%rax        # 4033d2 <array.3192+0x1d2>
  401cd3:	4c 0f 44 c8          	cmove  %rax,%r9
  401cd7:	48 8d 5c 24 60       	lea    0x60(%rsp),%rbx
  401cdc:	48 83 ec 08          	sub    $0x8,%rsp
  401ce0:	8b 05 d6 3a 00 00    	mov    0x3ad6(%rip),%eax        # 4057bc <num_input_strings>
  401ce6:	50                   	push   %rax
  401ce7:	4c 8d 44 24 20       	lea    0x20(%rsp),%r8
  401cec:	8b 0d 6e 39 00 00    	mov    0x396e(%rip),%ecx        # 405660 <bomb_id>
  401cf2:	48 8d 15 67 35 00 00 	lea    0x3567(%rip),%rdx        # 405260 <lab_id>
  401cf9:	48 8d 35 f6 16 00 00 	lea    0x16f6(%rip),%rsi        # 4033f6 <array.3192+0x1f6>
  401d00:	48 89 df             	mov    %rbx,%rdi
  401d03:	b8 00 00 00 00       	mov    $0x0,%eax
  401d08:	e8 b3 f4 ff ff       	callq  4011c0 <sprintf@plt>
  401d0d:	48 8d bc 24 70 04 00 	lea    0x470(%rsp),%rdi
  401d14:	00 
  401d15:	48 89 de             	mov    %rbx,%rsi
  401d18:	e8 93 f4 ff ff       	callq  4011b0 <strcat@plt>
  401d1d:	48 83 c4 10          	add    $0x10,%rsp
  401d21:	83 3d 94 3a 00 00 00 	cmpl   $0x0,0x3a94(%rip)        # 4057bc <num_input_strings>
  401d28:	7e 6b                	jle    401d95 <send_msg+0x1f1>
  401d2a:	48 8d 2d af 3a 00 00 	lea    0x3aaf(%rip),%rbp        # 4057e0 <input_strings>
  401d31:	bb 00 00 00 00       	mov    $0x0,%ebx
  401d36:	4c 8d 7c 24 10       	lea    0x10(%rsp),%r15
  401d3b:	4c 8d 64 24 60       	lea    0x60(%rsp),%r12
  401d40:	4c 8d 35 19 35 00 00 	lea    0x3519(%rip),%r14        # 405260 <lab_id>
  401d47:	4c 8d ac 24 60 04 00 	lea    0x460(%rsp),%r13
  401d4e:	00 
  401d4f:	83 c3 01             	add    $0x1,%ebx
  401d52:	48 83 ec 08          	sub    $0x8,%rsp
  401d56:	55                   	push   %rbp
  401d57:	41 89 d9             	mov    %ebx,%r9d
  401d5a:	4d 89 f8             	mov    %r15,%r8
  401d5d:	8b 0d fd 38 00 00    	mov    0x38fd(%rip),%ecx        # 405660 <bomb_id>
  401d63:	4c 89 f2             	mov    %r14,%rdx
  401d66:	48 8d 35 a5 16 00 00 	lea    0x16a5(%rip),%rsi        # 403412 <array.3192+0x212>
  401d6d:	4c 89 e7             	mov    %r12,%rdi
  401d70:	b8 00 00 00 00       	mov    $0x0,%eax
  401d75:	e8 46 f4 ff ff       	callq  4011c0 <sprintf@plt>
  401d7a:	4c 89 e6             	mov    %r12,%rsi
  401d7d:	4c 89 ef             	mov    %r13,%rdi
  401d80:	e8 2b f4 ff ff       	callq  4011b0 <strcat@plt>
  401d85:	48 83 c5 50          	add    $0x50,%rbp
  401d89:	48 83 c4 10          	add    $0x10,%rsp
  401d8d:	3b 1d 29 3a 00 00    	cmp    0x3a29(%rip),%ebx        # 4057bc <num_input_strings>
  401d93:	7c ba                	jl     401d4f <send_msg+0x1ab>
  401d95:	48 8d ac 24 60 04 00 	lea    0x460(%rsp),%rbp
  401d9c:	00 
  401d9d:	49 c7 c4 ff ff ff ff 	mov    $0xffffffffffffffff,%r12
  401da4:	bb 00 00 00 00       	mov    $0x0,%ebx
  401da9:	4c 89 e1             	mov    %r12,%rcx
  401dac:	48 89 ef             	mov    %rbp,%rdi
  401daf:	89 d8                	mov    %ebx,%eax
  401db1:	f2 ae                	repnz scas %es:(%rdi),%al
  401db3:	48 f7 d1             	not    %rcx
  401db6:	4a 8d 14 21          	lea    (%rcx,%r12,1),%rdx
  401dba:	48 89 ee             	mov    %rbp,%rsi
  401dbd:	8b 7c 24 0c          	mov    0xc(%rsp),%edi
  401dc1:	e8 7e fd ff ff       	callq  401b44 <writen>
  401dc6:	48 89 c2             	mov    %rax,%rdx
  401dc9:	4c 89 e1             	mov    %r12,%rcx
  401dcc:	48 89 ef             	mov    %rbp,%rdi
  401dcf:	89 d8                	mov    %ebx,%eax
  401dd1:	f2 ae                	repnz scas %es:(%rdi),%al
  401dd3:	48 89 cb             	mov    %rcx,%rbx
  401dd6:	48 f7 d3             	not    %rbx
  401dd9:	4c 01 e3             	add    %r12,%rbx
  401ddc:	48 39 da             	cmp    %rbx,%rdx
  401ddf:	0f 82 dc 00 00 00    	jb     401ec1 <send_msg+0x31d>
  401de5:	8b 7c 24 0c          	mov    0xc(%rsp),%edi
  401de9:	e8 e2 f2 ff ff       	callq  4010d0 <close@plt>
  401dee:	48 81 c4 78 24 00 00 	add    $0x2478,%rsp
  401df5:	5b                   	pop    %rbx
  401df6:	5d                   	pop    %rbp
  401df7:	41 5c                	pop    %r12
  401df9:	41 5d                	pop    %r13
  401dfb:	41 5e                	pop    %r14
  401dfd:	41 5f                	pop    %r15
  401dff:	c3                   	retq   
  401e00:	48 8d 15 d4 15 00 00 	lea    0x15d4(%rip),%rdx        # 4033db <array.3192+0x1db>
  401e07:	48 8d 35 0f 12 00 00 	lea    0x120f(%rip),%rsi        # 40301d <_IO_stdin_used+0x1d>
  401e0e:	48 8b 3d 8b 39 00 00 	mov    0x398b(%rip),%rdi        # 4057a0 <stdout@@GLIBC_2.2.5>
  401e15:	b8 00 00 00 00       	mov    $0x0,%eax
  401e1a:	e8 11 f3 ff ff       	callq  401130 <fprintf@plt>
  401e1f:	8b 7c 24 0c          	mov    0xc(%rsp),%edi
  401e23:	e8 a8 f2 ff ff       	callq  4010d0 <close@plt>
  401e28:	bf 01 00 00 00       	mov    $0x1,%edi
  401e2d:	e8 9e f3 ff ff       	callq  4011d0 <exit@plt>
  401e32:	48 8d 15 16 16 00 00 	lea    0x1616(%rip),%rdx        # 40344f <array.3192+0x24f>
  401e39:	48 8d 35 dd 11 00 00 	lea    0x11dd(%rip),%rsi        # 40301d <_IO_stdin_used+0x1d>
  401e40:	48 8b 3d 59 39 00 00 	mov    0x3959(%rip),%rdi        # 4057a0 <stdout@@GLIBC_2.2.5>
  401e47:	b8 00 00 00 00       	mov    $0x0,%eax
  401e4c:	e8 df f2 ff ff       	callq  401130 <fprintf@plt>
  401e51:	83 7c 24 0c 00       	cmpl   $0x0,0xc(%rsp)
  401e56:	75 0a                	jne    401e62 <send_msg+0x2be>
  401e58:	bf 01 00 00 00       	mov    $0x1,%edi
  401e5d:	e8 6e f3 ff ff       	callq  4011d0 <exit@plt>
  401e62:	8b 7c 24 0c          	mov    0xc(%rsp),%edi
  401e66:	e8 65 f2 ff ff       	callq  4010d0 <close@plt>
  401e6b:	eb eb                	jmp    401e58 <send_msg+0x2b4>
  401e6d:	48 8d 15 74 15 00 00 	lea    0x1574(%rip),%rdx        # 4033e8 <array.3192+0x1e8>
  401e74:	48 8d 35 a2 11 00 00 	lea    0x11a2(%rip),%rsi        # 40301d <_IO_stdin_used+0x1d>
  401e7b:	48 8b 3d 1e 39 00 00 	mov    0x391e(%rip),%rdi        # 4057a0 <stdout@@GLIBC_2.2.5>
  401e82:	b8 00 00 00 00       	mov    $0x0,%eax
  401e87:	e8 a4 f2 ff ff       	callq  401130 <fprintf@plt>
  401e8c:	83 7c 24 0c 00       	cmpl   $0x0,0xc(%rsp)
  401e91:	75 0a                	jne    401e9d <send_msg+0x2f9>
  401e93:	bf 01 00 00 00       	mov    $0x1,%edi
  401e98:	e8 33 f3 ff ff       	callq  4011d0 <exit@plt>
  401e9d:	8b 7c 24 0c          	mov    0xc(%rsp),%edi
  401ea1:	e8 2a f2 ff ff       	callq  4010d0 <close@plt>
  401ea6:	eb eb                	jmp    401e93 <send_msg+0x2ef>
  401ea8:	c7 44 24 10 6e 6f 62 	movl   $0x6f626f6e,0x10(%rsp)
  401eaf:	6f 
  401eb0:	66 c7 44 24 14 64 79 	movw   $0x7964,0x14(%rsp)
  401eb7:	c6 44 24 16 00       	movb   $0x0,0x16(%rsp)
  401ebc:	e9 01 fe ff ff       	jmpq   401cc2 <send_msg+0x11e>
  401ec1:	48 8d 15 66 15 00 00 	lea    0x1566(%rip),%rdx        # 40342e <array.3192+0x22e>
  401ec8:	48 8d 35 4e 11 00 00 	lea    0x114e(%rip),%rsi        # 40301d <_IO_stdin_used+0x1d>
  401ecf:	48 8b 3d ca 38 00 00 	mov    0x38ca(%rip),%rdi        # 4057a0 <stdout@@GLIBC_2.2.5>
  401ed6:	e8 55 f2 ff ff       	callq  401130 <fprintf@plt>
  401edb:	83 7c 24 0c 00       	cmpl   $0x0,0xc(%rsp)
  401ee0:	75 0a                	jne    401eec <send_msg+0x348>
  401ee2:	bf 01 00 00 00       	mov    $0x1,%edi
  401ee7:	e8 e4 f2 ff ff       	callq  4011d0 <exit@plt>
  401eec:	8b 7c 24 0c          	mov    0xc(%rsp),%edi
  401ef0:	e8 db f1 ff ff       	callq  4010d0 <close@plt>
  401ef5:	eb eb                	jmp    401ee2 <send_msg+0x33e>

0000000000401ef7 <send_msg_2>:
  401ef7:	41 56                	push   %r14
  401ef9:	41 55                	push   %r13
  401efb:	41 54                	push   %r12
  401efd:	55                   	push   %rbp
  401efe:	53                   	push   %rbx
  401eff:	48 83 ec 50          	sub    $0x50,%rsp
  401f03:	89 fb                	mov    %edi,%ebx
  401f05:	bf 00 00 00 00       	mov    $0x0,%edi
  401f0a:	e8 b1 f1 ff ff       	callq  4010c0 <dup@plt>
  401f0f:	83 f8 ff             	cmp    $0xffffffff,%eax
  401f12:	0f 84 91 01 00 00    	je     4020a9 <send_msg_2+0x1b2>
  401f18:	41 89 c6             	mov    %eax,%r14d
  401f1b:	bf 00 00 00 00       	mov    $0x0,%edi
  401f20:	e8 ab f1 ff ff       	callq  4010d0 <close@plt>
  401f25:	83 f8 ff             	cmp    $0xffffffff,%eax
  401f28:	0f 84 91 01 00 00    	je     4020bf <send_msg_2+0x1c8>
  401f2e:	e8 cd f1 ff ff       	callq  401100 <tmpfile@plt>
  401f33:	49 89 c4             	mov    %rax,%r12
  401f36:	48 85 c0             	test   %rax,%rax
  401f39:	0f 84 96 01 00 00    	je     4020d5 <send_msg_2+0x1de>
  401f3f:	48 89 c1             	mov    %rax,%rcx
  401f42:	ba 1b 00 00 00       	mov    $0x1b,%edx
  401f47:	be 01 00 00 00       	mov    $0x1,%esi
  401f4c:	48 8d 3d 2a 15 00 00 	lea    0x152a(%rip),%rdi        # 40347d <array.3192+0x27d>
  401f53:	e8 98 f2 ff ff       	callq  4011f0 <fwrite@plt>
  401f58:	4c 89 e6             	mov    %r12,%rsi
  401f5b:	bf 0a 00 00 00       	mov    $0xa,%edi
  401f60:	e8 7b f1 ff ff       	callq  4010e0 <fputc@plt>
  401f65:	bf 00 00 00 00       	mov    $0x0,%edi
  401f6a:	e8 21 f2 ff ff       	callq  401190 <cuserid@plt>
  401f6f:	48 85 c0             	test   %rax,%rax
  401f72:	0f 84 73 01 00 00    	je     4020eb <send_msg_2+0x1f4>
  401f78:	48 89 e7             	mov    %rsp,%rdi
  401f7b:	48 89 c6             	mov    %rax,%rsi
  401f7e:	e8 cd f0 ff ff       	callq  401050 <strcpy@plt>
  401f83:	85 db                	test   %ebx,%ebx
  401f85:	4c 8d 0d 3e 14 00 00 	lea    0x143e(%rip),%r9        # 4033ca <array.3192+0x1ca>
  401f8c:	48 8d 05 3f 14 00 00 	lea    0x143f(%rip),%rax        # 4033d2 <array.3192+0x1d2>
  401f93:	4c 0f 44 c8          	cmove  %rax,%r9
  401f97:	48 83 ec 08          	sub    $0x8,%rsp
  401f9b:	8b 05 1b 38 00 00    	mov    0x381b(%rip),%eax        # 4057bc <num_input_strings>
  401fa1:	50                   	push   %rax
  401fa2:	4c 8d 44 24 10       	lea    0x10(%rsp),%r8
  401fa7:	8b 0d b3 36 00 00    	mov    0x36b3(%rip),%ecx        # 405660 <bomb_id>
  401fad:	48 8d 15 ac 32 00 00 	lea    0x32ac(%rip),%rdx        # 405260 <lab_id>
  401fb4:	48 8d 35 3b 14 00 00 	lea    0x143b(%rip),%rsi        # 4033f6 <array.3192+0x1f6>
  401fbb:	4c 89 e7             	mov    %r12,%rdi
  401fbe:	b8 00 00 00 00       	mov    $0x0,%eax
  401fc3:	e8 68 f1 ff ff       	callq  401130 <fprintf@plt>
  401fc8:	48 83 c4 10          	add    $0x10,%rsp
  401fcc:	83 3d e9 37 00 00 00 	cmpl   $0x0,0x37e9(%rip)        # 4057bc <num_input_strings>
  401fd3:	7e 4e                	jle    402023 <send_msg_2+0x12c>
  401fd5:	48 8d 2d 04 38 00 00 	lea    0x3804(%rip),%rbp        # 4057e0 <input_strings>
  401fdc:	bb 00 00 00 00       	mov    $0x0,%ebx
  401fe1:	49 89 e5             	mov    %rsp,%r13
  401fe4:	83 c3 01             	add    $0x1,%ebx
  401fe7:	48 83 ec 08          	sub    $0x8,%rsp
  401feb:	55                   	push   %rbp
  401fec:	41 89 d9             	mov    %ebx,%r9d
  401fef:	4d 89 e8             	mov    %r13,%r8
  401ff2:	8b 0d 68 36 00 00    	mov    0x3668(%rip),%ecx        # 405660 <bomb_id>
  401ff8:	48 8d 15 61 32 00 00 	lea    0x3261(%rip),%rdx        # 405260 <lab_id>
  401fff:	48 8d 35 0c 14 00 00 	lea    0x140c(%rip),%rsi        # 403412 <array.3192+0x212>
  402006:	4c 89 e7             	mov    %r12,%rdi
  402009:	b8 00 00 00 00       	mov    $0x0,%eax
  40200e:	e8 1d f1 ff ff       	callq  401130 <fprintf@plt>
  402013:	48 83 c5 50          	add    $0x50,%rbp
  402017:	48 83 c4 10          	add    $0x10,%rsp
  40201b:	3b 1d 9b 37 00 00    	cmp    0x379b(%rip),%ebx        # 4057bc <num_input_strings>
  402021:	7c c1                	jl     401fe4 <send_msg_2+0xed>
  402023:	4c 89 e7             	mov    %r12,%rdi
  402026:	e8 85 f0 ff ff       	callq  4010b0 <rewind@plt>
  40202b:	4c 8d 05 67 14 00 00 	lea    0x1467(%rip),%r8        # 403499 <array.3192+0x299>
  402032:	48 8d 0d 6a 14 00 00 	lea    0x146a(%rip),%rcx        # 4034a3 <array.3192+0x2a3>
  402039:	48 8d 15 6b 14 00 00 	lea    0x146b(%rip),%rdx        # 4034ab <array.3192+0x2ab>
  402040:	48 8d 35 7b 14 00 00 	lea    0x147b(%rip),%rsi        # 4034c2 <array.3192+0x2c2>
  402047:	48 8d 3d d2 3d 00 00 	lea    0x3dd2(%rip),%rdi        # 405e20 <scratch>
  40204e:	b8 00 00 00 00       	mov    $0x0,%eax
  402053:	e8 68 f1 ff ff       	callq  4011c0 <sprintf@plt>
  402058:	48 8d 3d c1 3d 00 00 	lea    0x3dc1(%rip),%rdi        # 405e20 <scratch>
  40205f:	e8 2c f0 ff ff       	callq  401090 <system@plt>
  402064:	85 c0                	test   %eax,%eax
  402066:	0f 85 97 00 00 00    	jne    402103 <send_msg_2+0x20c>
  40206c:	4c 89 e7             	mov    %r12,%rdi
  40206f:	e8 0c f0 ff ff       	callq  401080 <fclose@plt>
  402074:	85 c0                	test   %eax,%eax
  402076:	0f 85 9d 00 00 00    	jne    402119 <send_msg_2+0x222>
  40207c:	44 89 f7             	mov    %r14d,%edi
  40207f:	e8 3c f0 ff ff       	callq  4010c0 <dup@plt>
  402084:	85 c0                	test   %eax,%eax
  402086:	0f 85 a3 00 00 00    	jne    40212f <send_msg_2+0x238>
  40208c:	44 89 f7             	mov    %r14d,%edi
  40208f:	e8 3c f0 ff ff       	callq  4010d0 <close@plt>
  402094:	85 c0                	test   %eax,%eax
  402096:	0f 85 a9 00 00 00    	jne    402145 <send_msg_2+0x24e>
  40209c:	48 83 c4 50          	add    $0x50,%rsp
  4020a0:	5b                   	pop    %rbx
  4020a1:	5d                   	pop    %rbp
  4020a2:	41 5c                	pop    %r12
  4020a4:	41 5d                	pop    %r13
  4020a6:	41 5e                	pop    %r14
  4020a8:	c3                   	retq   
  4020a9:	48 8d 3d 91 13 00 00 	lea    0x1391(%rip),%rdi        # 403441 <array.3192+0x241>
  4020b0:	e8 ab ef ff ff       	callq  401060 <puts@plt>
  4020b5:	bf 08 00 00 00       	mov    $0x8,%edi
  4020ba:	e8 11 f1 ff ff       	callq  4011d0 <exit@plt>
  4020bf:	48 8d 3d 8f 13 00 00 	lea    0x138f(%rip),%rdi        # 403455 <array.3192+0x255>
  4020c6:	e8 95 ef ff ff       	callq  401060 <puts@plt>
  4020cb:	bf 08 00 00 00       	mov    $0x8,%edi
  4020d0:	e8 fb f0 ff ff       	callq  4011d0 <exit@plt>
  4020d5:	48 8d 3d 8c 13 00 00 	lea    0x138c(%rip),%rdi        # 403468 <array.3192+0x268>
  4020dc:	e8 7f ef ff ff       	callq  401060 <puts@plt>
  4020e1:	bf 08 00 00 00       	mov    $0x8,%edi
  4020e6:	e8 e5 f0 ff ff       	callq  4011d0 <exit@plt>
  4020eb:	c7 04 24 6e 6f 62 6f 	movl   $0x6f626f6e,(%rsp)
  4020f2:	66 c7 44 24 04 64 79 	movw   $0x7964,0x4(%rsp)
  4020f9:	c6 44 24 06 00       	movb   $0x0,0x6(%rsp)
  4020fe:	e9 80 fe ff ff       	jmpq   401f83 <send_msg_2+0x8c>
  402103:	48 8d 3d c1 13 00 00 	lea    0x13c1(%rip),%rdi        # 4034cb <array.3192+0x2cb>
  40210a:	e8 51 ef ff ff       	callq  401060 <puts@plt>
  40210f:	bf 08 00 00 00       	mov    $0x8,%edi
  402114:	e8 b7 f0 ff ff       	callq  4011d0 <exit@plt>
  402119:	48 8d 3d c5 13 00 00 	lea    0x13c5(%rip),%rdi        # 4034e5 <array.3192+0x2e5>
  402120:	e8 3b ef ff ff       	callq  401060 <puts@plt>
  402125:	bf 08 00 00 00       	mov    $0x8,%edi
  40212a:	e8 a1 f0 ff ff       	callq  4011d0 <exit@plt>
  40212f:	48 8d 3d c8 13 00 00 	lea    0x13c8(%rip),%rdi        # 4034fe <array.3192+0x2fe>
  402136:	e8 25 ef ff ff       	callq  401060 <puts@plt>
  40213b:	bf 08 00 00 00       	mov    $0x8,%edi
  402140:	e8 8b f0 ff ff       	callq  4011d0 <exit@plt>
  402145:	48 8d 3d cd 13 00 00 	lea    0x13cd(%rip),%rdi        # 403519 <array.3192+0x319>
  40214c:	e8 0f ef ff ff       	callq  401060 <puts@plt>
  402151:	bf 08 00 00 00       	mov    $0x8,%edi
  402156:	e8 75 f0 ff ff       	callq  4011d0 <exit@plt>

000000000040215b <explode_bomb>:
  40215b:	48 83 ec 08          	sub    $0x8,%rsp
  40215f:	48 8d 3d ca 13 00 00 	lea    0x13ca(%rip),%rdi        # 403530 <array.3192+0x330>
  402166:	e8 f5 ee ff ff       	callq  401060 <puts@plt>
  40216b:	48 8d 3d c7 13 00 00 	lea    0x13c7(%rip),%rdi        # 403539 <array.3192+0x339>
  402172:	e8 e9 ee ff ff       	callq  401060 <puts@plt>
  402177:	bf 00 00 00 00       	mov    $0x0,%edi
  40217c:	e8 23 fa ff ff       	callq  401ba4 <send_msg>
  402181:	48 8d 3d f0 10 00 00 	lea    0x10f0(%rip),%rdi        # 403278 <array.3192+0x78>
  402188:	e8 d3 ee ff ff       	callq  401060 <puts@plt>
  40218d:	bf 08 00 00 00       	mov    $0x8,%edi
  402192:	e8 39 f0 ff ff       	callq  4011d0 <exit@plt>

0000000000402197 <read_six_numbers>:
  402197:	48 83 ec 08          	sub    $0x8,%rsp
  40219b:	48 89 f2             	mov    %rsi,%rdx
  40219e:	48 8d 4e 04          	lea    0x4(%rsi),%rcx
  4021a2:	48 8d 46 14          	lea    0x14(%rsi),%rax
  4021a6:	50                   	push   %rax
  4021a7:	48 8d 46 10          	lea    0x10(%rsi),%rax
  4021ab:	50                   	push   %rax
  4021ac:	4c 8d 4e 0c          	lea    0xc(%rsi),%r9
  4021b0:	4c 8d 46 08          	lea    0x8(%rsi),%r8
  4021b4:	48 8d 35 95 13 00 00 	lea    0x1395(%rip),%rsi        # 403550 <array.3192+0x350>
  4021bb:	b8 00 00 00 00       	mov    $0x0,%eax
  4021c0:	e8 ab ef ff ff       	callq  401170 <__isoc99_sscanf@plt>
  4021c5:	48 83 c4 10          	add    $0x10,%rsp
  4021c9:	83 f8 05             	cmp    $0x5,%eax
  4021cc:	7e 05                	jle    4021d3 <read_six_numbers+0x3c>
  4021ce:	48 83 c4 08          	add    $0x8,%rsp
  4021d2:	c3                   	retq   
  4021d3:	e8 83 ff ff ff       	callq  40215b <explode_bomb>

00000000004021d8 <read_line>:
  4021d8:	48 83 ec 08          	sub    $0x8,%rsp
  4021dc:	b8 00 00 00 00       	mov    $0x0,%eax
  4021e1:	e8 10 f9 ff ff       	callq  401af6 <skip>
  4021e6:	48 85 c0             	test   %rax,%rax
  4021e9:	74 6f                	je     40225a <read_line+0x82>
  4021eb:	8b 35 cb 35 00 00    	mov    0x35cb(%rip),%esi        # 4057bc <num_input_strings>
  4021f1:	48 63 c6             	movslq %esi,%rax
  4021f4:	48 8d 14 80          	lea    (%rax,%rax,4),%rdx
  4021f8:	48 c1 e2 04          	shl    $0x4,%rdx
  4021fc:	48 8d 05 dd 35 00 00 	lea    0x35dd(%rip),%rax        # 4057e0 <input_strings>
  402203:	48 01 c2             	add    %rax,%rdx
  402206:	48 c7 c1 ff ff ff ff 	mov    $0xffffffffffffffff,%rcx
  40220d:	b8 00 00 00 00       	mov    $0x0,%eax
  402212:	48 89 d7             	mov    %rdx,%rdi
  402215:	f2 ae                	repnz scas %es:(%rdi),%al
  402217:	48 f7 d1             	not    %rcx
  40221a:	48 83 e9 01          	sub    $0x1,%rcx
  40221e:	83 f9 4f             	cmp    $0x4f,%ecx
  402221:	0f 84 a1 00 00 00    	je     4022c8 <read_line+0xf0>
  402227:	83 e9 01             	sub    $0x1,%ecx
  40222a:	48 63 c9             	movslq %ecx,%rcx
  40222d:	48 63 c6             	movslq %esi,%rax
  402230:	48 8d 04 80          	lea    (%rax,%rax,4),%rax
  402234:	48 c1 e0 04          	shl    $0x4,%rax
  402238:	48 89 c7             	mov    %rax,%rdi
  40223b:	48 8d 05 9e 35 00 00 	lea    0x359e(%rip),%rax        # 4057e0 <input_strings>
  402242:	48 01 f8             	add    %rdi,%rax
  402245:	c6 04 08 00          	movb   $0x0,(%rax,%rcx,1)
  402249:	83 c6 01             	add    $0x1,%esi
  40224c:	89 35 6a 35 00 00    	mov    %esi,0x356a(%rip)        # 4057bc <num_input_strings>
  402252:	48 89 d0             	mov    %rdx,%rax
  402255:	48 83 c4 08          	add    $0x8,%rsp
  402259:	c3                   	retq   
  40225a:	48 8b 05 4f 35 00 00 	mov    0x354f(%rip),%rax        # 4057b0 <stdin@@GLIBC_2.2.5>
  402261:	48 39 05 58 35 00 00 	cmp    %rax,0x3558(%rip)        # 4057c0 <infile>
  402268:	74 1b                	je     402285 <read_line+0xad>
  40226a:	48 8d 3d 0f 13 00 00 	lea    0x130f(%rip),%rdi        # 403580 <array.3192+0x380>
  402271:	e8 ba ed ff ff       	callq  401030 <getenv@plt>
  402276:	48 85 c0             	test   %rax,%rax
  402279:	74 1b                	je     402296 <read_line+0xbe>
  40227b:	bf 00 00 00 00       	mov    $0x0,%edi
  402280:	e8 4b ef ff ff       	callq  4011d0 <exit@plt>
  402285:	48 8d 3d d6 12 00 00 	lea    0x12d6(%rip),%rdi        # 403562 <array.3192+0x362>
  40228c:	e8 cf ed ff ff       	callq  401060 <puts@plt>
  402291:	e8 c5 fe ff ff       	callq  40215b <explode_bomb>
  402296:	48 8b 05 13 35 00 00 	mov    0x3513(%rip),%rax        # 4057b0 <stdin@@GLIBC_2.2.5>
  40229d:	48 89 05 1c 35 00 00 	mov    %rax,0x351c(%rip)        # 4057c0 <infile>
  4022a4:	b8 00 00 00 00       	mov    $0x0,%eax
  4022a9:	e8 48 f8 ff ff       	callq  401af6 <skip>
  4022ae:	48 85 c0             	test   %rax,%rax
  4022b1:	0f 85 34 ff ff ff    	jne    4021eb <read_line+0x13>
  4022b7:	48 8d 3d a4 12 00 00 	lea    0x12a4(%rip),%rdi        # 403562 <array.3192+0x362>
  4022be:	e8 9d ed ff ff       	callq  401060 <puts@plt>
  4022c3:	e8 93 fe ff ff       	callq  40215b <explode_bomb>
  4022c8:	48 8d 3d bc 12 00 00 	lea    0x12bc(%rip),%rdi        # 40358b <array.3192+0x38b>
  4022cf:	e8 8c ed ff ff       	callq  401060 <puts@plt>
  4022d4:	e8 82 fe ff ff       	callq  40215b <explode_bomb>

00000000004022d9 <phase_defused>:
  4022d9:	48 83 ec 68          	sub    $0x68,%rsp
  4022dd:	bf 01 00 00 00       	mov    $0x1,%edi
  4022e2:	e8 bd f8 ff ff       	callq  401ba4 <send_msg>
  4022e7:	83 3d ce 34 00 00 06 	cmpl   $0x6,0x34ce(%rip)        # 4057bc <num_input_strings>
  4022ee:	74 05                	je     4022f5 <phase_defused+0x1c>
  4022f0:	48 83 c4 68          	add    $0x68,%rsp
  4022f4:	c3                   	retq   
  4022f5:	48 8d 4c 24 10       	lea    0x10(%rsp),%rcx
  4022fa:	48 8d 54 24 0c       	lea    0xc(%rsp),%rdx
  4022ff:	48 8d 35 a0 12 00 00 	lea    0x12a0(%rip),%rsi        # 4035a6 <array.3192+0x3a6>
  402306:	48 8d 3d c3 35 00 00 	lea    0x35c3(%rip),%rdi        # 4058d0 <input_strings+0xf0>
  40230d:	b8 00 00 00 00       	mov    $0x0,%eax
  402312:	e8 59 ee ff ff       	callq  401170 <__isoc99_sscanf@plt>
  402317:	83 f8 02             	cmp    $0x2,%eax
  40231a:	74 1a                	je     402336 <phase_defused+0x5d>
  40231c:	48 8d 3d dd 0f 00 00 	lea    0xfdd(%rip),%rdi        # 403300 <array.3192+0x100>
  402323:	e8 38 ed ff ff       	callq  401060 <puts@plt>
  402328:	48 8d 3d 01 10 00 00 	lea    0x1001(%rip),%rdi        # 403330 <array.3192+0x130>
  40232f:	e8 2c ed ff ff       	callq  401060 <puts@plt>
  402334:	eb ba                	jmp    4022f0 <phase_defused+0x17>
  402336:	48 8d 7c 24 10       	lea    0x10(%rsp),%rdi
  40233b:	48 8d 35 6a 12 00 00 	lea    0x126a(%rip),%rsi        # 4035ac <array.3192+0x3ac>
  402342:	e8 05 f6 ff ff       	callq  40194c <strings_not_equal>
  402347:	85 c0                	test   %eax,%eax
  402349:	75 d1                	jne    40231c <phase_defused+0x43>
  40234b:	48 8d 3d 4e 0f 00 00 	lea    0xf4e(%rip),%rdi        # 4032a0 <array.3192+0xa0>
  402352:	e8 09 ed ff ff       	callq  401060 <puts@plt>
  402357:	48 8d 3d 6a 0f 00 00 	lea    0xf6a(%rip),%rdi        # 4032c8 <array.3192+0xc8>
  40235e:	e8 fd ec ff ff       	callq  401060 <puts@plt>
  402363:	b8 00 00 00 00       	mov    $0x0,%eax
  402368:	e8 f0 f4 ff ff       	callq  40185d <secret_phase>
  40236d:	eb ad                	jmp    40231c <phase_defused+0x43>
  40236f:	90                   	nop

0000000000402370 <__libc_csu_init>:
  402370:	41 57                	push   %r15
  402372:	49 89 d7             	mov    %rdx,%r15
  402375:	41 56                	push   %r14
  402377:	49 89 f6             	mov    %rsi,%r14
  40237a:	41 55                	push   %r13
  40237c:	41 89 fd             	mov    %edi,%r13d
  40237f:	41 54                	push   %r12
  402381:	4c 8d 25 88 2a 00 00 	lea    0x2a88(%rip),%r12        # 404e10 <__frame_dummy_init_array_entry>
  402388:	55                   	push   %rbp
  402389:	48 8d 2d 88 2a 00 00 	lea    0x2a88(%rip),%rbp        # 404e18 <__init_array_end>
  402390:	53                   	push   %rbx
  402391:	4c 29 e5             	sub    %r12,%rbp
  402394:	48 83 ec 08          	sub    $0x8,%rsp
  402398:	e8 63 ec ff ff       	callq  401000 <_init>
  40239d:	48 c1 fd 03          	sar    $0x3,%rbp
  4023a1:	74 1b                	je     4023be <__libc_csu_init+0x4e>
  4023a3:	31 db                	xor    %ebx,%ebx
  4023a5:	0f 1f 00             	nopl   (%rax)
  4023a8:	4c 89 fa             	mov    %r15,%rdx
  4023ab:	4c 89 f6             	mov    %r14,%rsi
  4023ae:	44 89 ef             	mov    %r13d,%edi
  4023b1:	41 ff 14 dc          	callq  *(%r12,%rbx,8)
  4023b5:	48 83 c3 01          	add    $0x1,%rbx
  4023b9:	48 39 dd             	cmp    %rbx,%rbp
  4023bc:	75 ea                	jne    4023a8 <__libc_csu_init+0x38>
  4023be:	48 83 c4 08          	add    $0x8,%rsp
  4023c2:	5b                   	pop    %rbx
  4023c3:	5d                   	pop    %rbp
  4023c4:	41 5c                	pop    %r12
  4023c6:	41 5d                	pop    %r13
  4023c8:	41 5e                	pop    %r14
  4023ca:	41 5f                	pop    %r15
  4023cc:	c3                   	retq   
  4023cd:	0f 1f 00             	nopl   (%rax)

00000000004023d0 <__libc_csu_fini>:
  4023d0:	c3                   	retq   

Disassembly of section .fini:

00000000004023d4 <_fini>:
  4023d4:	48 83 ec 08          	sub    $0x8,%rsp
  4023d8:	48 83 c4 08          	add    $0x8,%rsp
  4023dc:	c3                   	retq   
